00000016 a .callsz
00000000 a .callsz
00000000 a .callsz
00000016 a .callsz
00000000 a .locsz
00000016 a .locsz
00000000 a .locsz
00000016 a .locsz
1073765080 A __absvdi2
1073765060 A __absvsi2
1057069420 00000108 D __action_table
1074436408 00000103 T __adcAttachPin
1073776224 A __adddf3
1073775032 A __addsf3
1073778064 A __addvdi3
1073778028 A __addvsi3
1073496110 00000001 d __analogAttenuation
1073496108 00000001 d __analogClockDiv
1074436280 00000048 T __analogInit
1074436512 00000070 T __analogRead
1073496109 00000001 d __analogReturnedWidth
1074436256 00000022 T __analogSetClockDiv
1074436328 00000078 T __analogSetPinAttenuation
1074946104 00000080 T __any_on
1073773060 00000036 A __ascii_mbtowc
1073748176 00000037 A __ascii_wctomb
1073852416 00000024 A __ashldi3
1073852440 A __ashrdi3
1073949328 00000264 T __assert_func
1073503588 00000004 D __atexit_recursive_mutex
1074437040 00000022 T __attachInterruptArg
1074436856 00000181 T __attachInterruptFunctionalArg
1074945564 00000164 T __b2d
1073769780 00000086 A __bswapdi2
1073769740 00000038 A __bswapsi2
1073504048 00000032 d __c$3380
1073507561 00000055 d __c$4194
1073507556 00000005 d __c$4212
1073507551 00000005 d __c$4214
1073507547 00000004 d __c$4216
1073504132 00000056 d __c$5774
1073507475 00000053 d __c$5815
1073507429 00000046 d __c$5894
1073507361 00000050 d __c$6927
1073507303 00000058 d __c$6940
1073507257 00000046 d __c$6954
1073507201 00000056 d __c$6958
1073507145 00000056 d __c$6962
1073507091 00000054 d __c$6979
1073507036 00000055 d __c$6982
1073506983 00000053 d __c$6984
1073506930 00000053 d __c$6986
1073506877 00000053 d __c$6997
1073506814 00000063 d __c$7001
1073506763 00000051 d __c$7009
1073506713 00000050 d __c$7042
1073506643 00000070 d __c$7052
1073506573 00000070 d __c$7060
1073506507 00000066 d __c$7072
1073506441 00000066 d __c$7075
1073506375 00000066 d __c$7078
1073506309 00000066 d __c$7080
1073506232 00000077 d __c$7084
1073506172 00000060 d __c$7092
1073506110 00000062 d __c$7095
1073506049 00000061 d __c$7109
1073505989 00000060 d __c$7115
1073505919 00000070 d __c$7119
1073505877 00000042 d __c$7132
1073505814 00000063 d __c$7136
1073505747 00000067 d __c$7151
1073505713 00000034 d __c$7155
1073505648 00000065 d __c$7157
1073505570 00000078 d __c$7159
1073505509 00000061 d __c$7166
1073505448 00000061 d __c$7169
1073505389 00000059 d __c$7171
1073505324 00000065 d __c$7173
1073505260 00000064 d __c$7175
1073505220 00000040 d __c$7185
1073505166 00000054 d __c$7195
1073505122 00000044 d __c$7197
1073505071 00000051 d __c$7199
1073505029 00000042 d __c$7205
1073504119 00000006 d __c$7408
1073504113 00000006 d __c$7410
1073504105 00000008 d __c$7412
1073504080 00000025 d __c$7417
1073504967 00000042 d __c$8638
1073504912 00000055 d __c$8651
1073504864 00000048 d __c$8653
1073504816 00000048 d __c$8665
1073504776 00000040 d __c$8669
1073504721 00000055 d __c$8682
1073504666 00000055 d __c$8684
1073504592 00000074 d __c$8694
1073504548 00000044 d __c$8696
1073504495 00000053 d __c$8723
1073504438 00000057 d __c$8728
1073504397 00000041 d __c$8730
1073504355 00000042 d __c$8746
1073504312 00000043 d __c$8748
1073504259 00000053 d __c$8751
1073504209 00000050 d __c$8755
1057069636 00000256 D __chclass
1073765052 A __clear_cache
1073769896 A __clrsbdi2
1073769872 A __clrsbsi2
1073852984 A __clzdi2
1073852368 A __clzsi2
1073764988 A __cmpdi2
1074946048 00000053 T __copybits
1073853004 A __ctzdi2
1073852376 A __ctzsi2
1074839536 00000050 T __cxa_allocate_exception
1074841568 00000090 T __cxa_begin_catch
1074843260 00000054 T __cxa_call_terminate
1074841080 00000125 T __cxa_call_unexpected
1074841660 00000098 T __cxa_end_catch
1074839588 00000036 T __cxa_free_exception
1074841444 00000058 T __cxa_get_globals
1074841416 00000026 T __cxa_get_globals_fast
1074584416 00000130 T __cxa_guard_abort
1074583988 00000306 T __cxa_guard_acquire
1074981924 00000005 T __cxa_guard_dummy
1074584296 00000118 T __cxa_guard_release
1074838852 00000046 T __cxa_init_primary_exception
1074841560 00000006 T __cxa_pure_virtual
1074838944 00000080 T __cxa_rethrow
1074838900 00000042 T __cxa_throw
1074980492 00000007 T __cxx_eh_arena_size_get
1074945728 00000180 T __d2b
1057067944 00000364 D __default_global_locale
1074849372 00000020 T __deregister_frame
1074849360 00000012 T __deregister_frame_info
1074849212 00000147 T __deregister_frame_info_bases
1074436840 00000013 T __digitalRead
1074436824 00000014 T __digitalWrite
1073768532 A __divdc3
1073777188 A __divdf3
1073853036 00000682 A __divdi3
1073767748 A __divsc3
1073775644 A __divsf3
1073852320 A __divsi3
1057155712 D __DTOR_END__
1057155660 d __DTOR_LIST__
1057088708 A __eh_frame
1057088708 d __EH_FRAME_BEGIN__
1074975920 00000014 T __env_lock
1074975936 00000014 T __env_unlock
1073764612 A __eqdf2
1073763792 A __eqsf2
1074899984 00000013 T __errno
1074473644 00000016 t __esp_stack_guard_setup
1073900732 00000030 t __esp_system_init_fn_init_components0
1073777928 A __extendsfdf2
1073503576 00000004 D __fdlib_version
1073852948 A __ffsdi2
1073852396 A __ffssi2
1073777560 A __fixdfdi
1073777484 A __fixdfsi
1073775900 A __fixsfdi
1073775836 A __fixsfsi
1074844136 T __fixunsdfdi
1073777668 A __fixunsdfsi
1073776084 A __fixunssfdi
1073775996 A __fixunssfsi
1073852784 A __floatdidf
1073852584 A __floatdisf
1073852716 A __floatsidf
1073852504 A __floatsisf
1073852768 A __floatundidf
1073852568 A __floatundisf
1073852704 A __floatunsidf
1073852492 A __floatunsisf
1073849932 00000023 A __fp_unlock_all
1073747824 A __fputwc
1057155572 d __FRAME_END__
1057046610 00000019 d __func__$10537
1057046629 00000019 d __func__$10552
1057045033 00000031 d __func__$11417
1057045003 00000030 d __func__$11436
1057044974 00000029 d __func__$11447
1057044948 00000026 d __func__$11461
1056996389 00000013 d __func__$14495
1073508183 00000022 d __func__$2281
1073508160 00000023 d __func__$2305
1057019979 00000027 d __func__$2745
1073508412 00000024 d __func__$2873
1073508688 00000032 d __func__$2906
1057016836 00000018 d __func__$3570
1057016815 00000021 d __func__$3606
1057019409 00000022 d __func__$3619
1057019467 00000018 d __func__$3628
1057019485 00000018 d __func__$3636
1057019381 00000012 d __func__$3659
1057019341 00000013 d __func__$3664
1057019354 00000017 d __func__$3670
1057019324 00000017 d __func__$3676
1057041888 00000040 d __func__$3679
1057019393 00000016 d __func__$3682
1057041845 00000043 d __func__$3686
1057019295 00000016 d __func__$3689
1057019431 00000018 d __func__$3704
1057019449 00000018 d __func__$3716
1056992911 00000023 d __func__$3749
1056992886 00000025 d __func__$3756
1057019371 00000010 d __func__$3891
1057019311 00000013 d __func__$3904
1057022862 00000026 d __func__$3970
1057022371 00000016 d __func__$4037
1057039511 00000012 d __func__$4108
1057039449 00000013 d __func__$4154
1057039395 00000012 d __func__$4165
1073512085 00000041 d __func__$4168
1057039462 00000012 d __func__$4177
1057039474 00000013 d __func__$4187
1057044258 00000030 d __func__$4193
1057044228 00000030 d __func__$4201
1057044199 00000029 d __func__$4211
1057043175 00000026 d __func__$4451
1057043148 00000027 d __func__$4547
1057039407 00000017 d __func__$4548
1057039379 00000016 d __func__$4779
1057039424 00000025 d __func__$4818
1057039487 00000024 d __func__$4875
1057045285 00000023 d __func__$4902
1057045262 00000023 d __func__$4907
1056991218 00000021 d __func__$4948
1056991196 00000022 d __func__$4952
1056991176 00000020 d __func__$4956
1057019725 00000016 d __func__$5012
1057019706 00000019 d __func__$5025
1057017541 00000014 d __func__$5032
1057017325 00000024 d __func__$5033
1057019676 00000030 d __func__$5045
1057017526 00000015 d __func__$5063
1057017349 00000017 d __func__$5066
1057017300 00000025 d __func__$5075
1057017274 00000026 d __func__$5081
1057017227 00000024 d __func__$5092
1057017202 00000025 d __func__$5104
1057017178 00000024 d __func__$5116
1057039235 00000017 d __func__$5119
1057017163 00000015 d __func__$5130
1057017251 00000023 d __func__$5140
1057017686 00000025 d __func__$5144
1057039202 00000018 d __func__$5147
1057017145 00000018 d __func__$5150
1057061066 00000020 d __func__$5161
1057034824 00000012 d __func__$5161
1057017128 00000017 d __func__$5164
1057061045 00000021 d __func__$5169
1057034803 00000021 d __func__$5170
1057039149 00000021 d __func__$5174
1056992121 00000040 d __func__$5175
1057017662 00000024 d __func__$5186
1057061026 00000019 d __func__$5189
1057034782 00000021 d __func__$5190
1056995905 00000026 d __func__$5191
1057061008 00000018 d __func__$5198
1057034763 00000019 d __func__$5215
1056993314 00000019 d __func__$5235
1057034741 00000022 d __func__$5247
1057039322 00000009 d __func__$5280
1056993296 00000018 d __func__$5284
1057039331 00000014 d __func__$5293
1056993275 00000021 d __func__$5316
1056993256 00000019 d __func__$5329
1056993236 00000020 d __func__$5339
1056993213 00000023 d __func__$5346
1056993189 00000024 d __func__$5353
1056993163 00000026 d __func__$5359
1056993144 00000019 d __func__$5368
1057039360 00000019 d __func__$5414
1057031446 00000029 d __func__$5418
1057031436 00000010 d __func__$5423
1057034474 00000030 d __func__$5426
1057033039 00000019 d __func__$5430
1057039523 00000014 d __func__$5431
1057031406 00000030 d __func__$5437
1057033013 00000026 d __func__$5439
1057032993 00000020 d __func__$5449
1057034462 00000012 d __func__$5475
1057046970 00000016 d __func__$5483
1057039345 00000015 d __func__$5486
1057032968 00000025 d __func__$5489
1057046953 00000017 d __func__$5489
1057034425 00000011 d __func__$5491
1057032943 00000025 d __func__$5496
1057046939 00000014 d __func__$5498
1057022565 00000021 d __func__$5498
1057032913 00000030 d __func__$5509
1057032895 00000018 d __func__$5520
1057022545 00000020 d __func__$5522
1057032843 00000025 d __func__$5532
1057034412 00000013 d __func__$5534
1057032825 00000018 d __func__$5541
1057032811 00000014 d __func__$5552
1057039308 00000014 d __func__$5554
1057032791 00000020 d __func__$5563
1057034392 00000020 d __func__$5565
1057039280 00000015 d __func__$5569
1057031154 00000026 d __func__$5571
1057039266 00000014 d __func__$5575
1057032780 00000011 d __func__$5576
1057039252 00000014 d __func__$5583
1057034377 00000015 d __func__$5585
1057032759 00000021 d __func__$5587
1057022531 00000014 d __func__$5588
1057039220 00000015 d __func__$5592
1057041497 00000015 d __func__$5597
1057039188 00000014 d __func__$5601
1057041512 00000024 d __func__$5602
1057032736 00000023 d __func__$5604
1057041642 00000027 d __func__$5608
1057022514 00000017 d __func__$5608
1057034363 00000014 d __func__$5608
1057039170 00000018 d __func__$5609
1057041559 00000022 d __func__$5615
1057032723 00000013 d __func__$5621
1057041536 00000023 d __func__$5623
1057039136 00000013 d __func__$5640
1057034334 00000029 d __func__$5641
1057041620 00000022 d __func__$5642
1057041669 00000019 d __func__$5650
1056991689 00000032 d __func__$5656
1057034315 00000019 d __func__$5661
1057041581 00000018 d __func__$5662
1057034276 00000019 d __func__$5669
1057041688 00000018 d __func__$5670
1057034254 00000022 d __func__$5675
1057041599 00000021 d __func__$5676
1057034223 00000031 d __func__$5681
1057041706 00000021 d __func__$5686
1057034198 00000025 d __func__$5696
1057060143 00000021 d __func__$5698
1056991659 00000030 d __func__$5699
1057032868 00000027 d __func__$5706
1056991625 00000034 d __func__$5710
1057034164 00000034 d __func__$5711
1057041421 00000018 d __func__$5716
1057034143 00000021 d __func__$5724
1057041370 00000025 d __func__$5730
1057041727 00000018 d __func__$5735
1057041481 00000016 d __func__$5779
1057041458 00000023 d __func__$5794
1057034436 00000013 d __func__$5803
1057041439 00000019 d __func__$5803
1057034449 00000013 d __func__$5807
1057041395 00000026 d __func__$5811
1057043364 00000032 d __func__$5814
1057034119 00000024 d __func__$5840
1057034083 00000036 d __func__$5849
1057044041 00000024 d __func__$5864
1057041348 00000022 d __func__$5865
1057034059 00000024 d __func__$5868
1057041319 00000029 d __func__$5872
1057041301 00000018 d __func__$5877
1057041275 00000026 d __func__$5882
1057044008 00000033 d __func__$5890
1057034029 00000030 d __func__$5928
1073511417 00000025 d __func__$5992
1073511393 00000024 d __func__$5998
1073511368 00000025 d __func__$6006
1056995056 00000046 d __func__$6306
1057004130 00000011 d __func__$6570
1057004121 00000009 d __func__$6574
1056994959 00000022 d __func__$6597
1056994938 00000021 d __func__$6626
1057014518 00000015 d __func__$6632
1057014501 00000017 d __func__$6637
1057014489 00000012 d __func__$6645
1057014474 00000015 d __func__$6651
1057014456 00000018 d __func__$6661
1057014442 00000014 d __func__$6675
1057014422 00000020 d __func__$6695
1057014399 00000023 d __func__$6703
1057014385 00000014 d __func__$6712
1057016702 00000013 d __func__$6744
1057014368 00000017 d __func__$6763
1056993548 00000021 d __func__$6829
1056993531 00000017 d __func__$6838
1056998745 00000015 d __func__$6964
1057049944 00000020 d __func__$7083
1057013896 00000016 d __func__$7163
1057013593 00000009 d __func__$7172
1057006070 00000010 d __func__$7173
1057013190 00000009 d __func__$7206
1057012675 00000011 d __func__$7213
1057006052 00000018 d __func__$7217
1057012656 00000019 d __func__$7231
1056995800 00000013 d __func__$7248
1057012915 00000018 d __func__$7283
1057013367 00000020 d __func__$7295
1057013326 00000041 d __func__$7321
1057012449 00000014 d __func__$7334
1057011128 00000022 d __func__$7344
1057011150 00000010 d __func__$7357
1057012431 00000018 d __func__$7363
1057012407 00000024 d __func__$7374
1057012905 00000010 d __func__$7381
1057003875 00000013 d __func__$7399
1057011110 00000018 d __func__$7400
1057003851 00000024 d __func__$7412
1057003972 00000012 d __func__$7419
1057012355 00000027 d __func__$7420
1056995548 00000018 d __func__$7429
1057003957 00000015 d __func__$7429
1057012382 00000014 d __func__$7429
1057003938 00000019 d __func__$7435
1057003914 00000024 d __func__$7442
1057012342 00000013 d __func__$7444
1056995531 00000017 d __func__$7446
1057003899 00000015 d __func__$7448
1057013771 00000030 d __func__$7459
1057003888 00000011 d __func__$7469
1057012396 00000011 d __func__$7469
1057011769 00000022 d __func__$7518
1057007655 00000009 d __func__$7520
1057011791 00000022 d __func__$7522
1057007599 00000016 d __func__$7524
1057010575 00000019 d __func__$7527
1057010594 00000018 d __func__$7539
1057010612 00000017 d __func__$7544
1056988388 00000012 d __func__$7548
1057007634 00000021 d __func__$7552
1057007615 00000019 d __func__$7557
1057010629 00000010 d __func__$7570
1057007576 00000023 d __func__$7575
1057008764 00000010 d __func__$7578
1057011826 00000016 d __func__$7598
1057008656 00000024 d __func__$7599
1057010554 00000021 d __func__$7601
1057007564 00000012 d __func__$7601
1057011813 00000013 d __func__$7602
1057010541 00000013 d __func__$7606
1057013478 00000018 d __func__$7606
1057008739 00000012 d __func__$7618
1057010523 00000018 d __func__$7619
1057005856 00000011 d __func__$7625
1057011721 00000021 d __func__$7633
1057010512 00000011 d __func__$7633
1057007516 00000016 d __func__$7637
1057005835 00000021 d __func__$7638
1057008680 00000023 d __func__$7646
1057010469 00000024 d __func__$7649
1057005822 00000013 d __func__$7656
1057007532 00000032 d __func__$7657
1057008703 00000024 d __func__$7658
1057010493 00000019 d __func__$7658
1057007493 00000023 d __func__$7662
1057010446 00000023 d __func__$7664
1057005801 00000021 d __func__$7668
1057008727 00000012 d __func__$7668
1057007482 00000011 d __func__$7670
1057010424 00000022 d __func__$7671
1057010409 00000015 d __func__$7675
1057010398 00000011 d __func__$7681
1057005782 00000019 d __func__$7683
1057010382 00000016 d __func__$7688
1057010343 00000031 d __func__$7701
1057013745 00000015 d __func__$7708
1057010249 00000024 d __func__$7709
1057008751 00000013 d __func__$7711
1057005772 00000010 d __func__$7713
1057007470 00000012 d __func__$7717
1057011897 00000012 d __func__$7717
1057010319 00000024 d __func__$7719
1057011880 00000017 d __func__$7723
1057010292 00000027 d __func__$7728
1057011909 00000018 d __func__$7729
1057005763 00000009 d __func__$7731
1057011842 00000017 d __func__$7735
1057005754 00000009 d __func__$7740
1057010374 00000008 d __func__$7744
1057011859 00000021 d __func__$7745
1057013722 00000023 d __func__$7749
1057010273 00000019 d __func__$7753
1057010235 00000014 d __func__$7760
1056994130 00000026 d __func__$7762
1057010811 00000016 d __func__$7765
1057005731 00000023 d __func__$7765
1057013760 00000011 d __func__$7770
1057010213 00000022 d __func__$7772
1057007457 00000013 d __func__$7773
1057014711 00000030 d __func__$7784
1057010799 00000012 d __func__$7795
1057011742 00000017 d __func__$7797
1057013035 00000022 d __func__$7814
1057005721 00000010 d __func__$7815
1057011759 00000010 d __func__$7817
1057005708 00000013 d __func__$7830
1057011927 00000016 d __func__$7832
1057005697 00000011 d __func__$7843
1057007448 00000009 d __func__$7865
1057007439 00000009 d __func__$7870
1057007431 00000008 d __func__$7875
1057007422 00000009 d __func__$7886
1057007407 00000015 d __func__$7894
1057007394 00000013 d __func__$7902
1057007371 00000023 d __func__$7910
1057007337 00000034 d __func__$7917
1056990224 00000018 d __func__$7945
1057023429 00000033 d __func__$7959
1057005193 00000018 d __func__$7998
1056999728 00000022 d __func__$8014
1056999701 00000027 d __func__$8026
1057005183 00000010 d __func__$8031
1057016486 00000024 d __func__$8033
1057036836 00000016 d __func__$8036
1057016527 00000024 d __func__$8038
1057005163 00000020 d __func__$8046
1057016518 00000009 d __func__$8063
1057037089 00000026 d __func__$8074
1057016402 00000009 d __func__$8075
1057016477 00000009 d __func__$8082
1057016411 00000009 d __func__$8089
1056999053 00000011 d __func__$8089
1057036852 00000020 d __func__$8093
1057015204 00000036 d __func__$8093
1057016510 00000008 d __func__$8098
1057036806 00000030 d __func__$8102
1056999064 00000017 d __func__$8105
1057005143 00000020 d __func__$8107
1056999081 00000010 d __func__$8111
1056999102 00000011 d __func__$8123
1057005125 00000018 d __func__$8127
1056999091 00000011 d __func__$8127
1056999113 00000011 d __func__$8133
1057016388 00000014 d __func__$8140
1056999124 00000011 d __func__$8143
1057005114 00000011 d __func__$8145
1057016375 00000013 d __func__$8145
1057058105 00000020 d __func__$8149
1057036872 00000027 d __func__$8153
1057016361 00000014 d __func__$8159
1057015186 00000018 d __func__$8160
1057005095 00000019 d __func__$8160
1057005070 00000025 d __func__$8171
1057005045 00000025 d __func__$8178
1057036899 00000025 d __func__$8184
1057005020 00000025 d __func__$8186
1057016420 00000031 d __func__$8190
1057016337 00000024 d __func__$8198
1057058196 00000028 d __func__$8207
1057015157 00000029 d __func__$8245
1057016451 00000026 d __func__$8291
1057016315 00000022 d __func__$8303
1057016291 00000024 d __func__$8313
1057036924 00000018 d __func__$8317
1057016269 00000022 d __func__$8320
1056993920 00000023 d __func__$8324
1057036942 00000020 d __func__$8325
1057037048 00000022 d __func__$8348
1057036962 00000021 d __func__$8356
1057036983 00000023 d __func__$8366
1057037006 00000021 d __func__$8377
1057037027 00000021 d __func__$8384
1056993904 00000016 d __func__$8396
1056993878 00000026 d __func__$8414
1057003688 00000014 d __func__$8414
1057003529 00000021 d __func__$8418
1057003644 00000012 d __func__$8426
1057037070 00000019 d __func__$8440
1057001990 00000019 d __func__$8446
1057003675 00000013 d __func__$8457
1057003656 00000019 d __func__$8467
1057001949 00000041 d __func__$8512
1057003633 00000011 d __func__$8524
1057001906 00000043 d __func__$8544
1057003619 00000014 d __func__$8557
1057003599 00000020 d __func__$8575
1057001888 00000018 d __func__$8577
1057003577 00000022 d __func__$8600
1057004267 00000020 d __func__$8664
1057004249 00000018 d __func__$8680
1057043501 00000026 d __func__$8721
1057003507 00000022 d __func__$8748
1057003550 00000012 d __func__$8847
1057014965 00000023 d __func__$8865
1057003562 00000015 d __func__$8929
1057003482 00000025 d __func__$9002
1057003460 00000022 d __func__$9010
1056987664 00000010 d __func__$9067
1057003435 00000025 d __func__$9087
1057003414 00000021 d __func__$9116
1056987648 00000016 d __func__$9166
1057002631 00000033 d __func__$9216
1057002597 00000034 d __func__$9222
1057023334 00000013 d __func__$9338
1057061902 00000017 d __func__$9465
1057014590 00000012 d __func__$9510
1057061802 00000015 d __func__$9524
1057061854 00000027 d __func__$9528
1057061817 00000037 d __func__$9587
1057061881 00000021 d __func__$9677
1057001199 00000014 d __func__$9825
1057001179 00000020 d __func__$9883
1056990908 00000021 d __FUNCTION__$12273
1056990882 00000026 d __FUNCTION__$12290
1056990864 00000018 d __FUNCTION__$12304
1056990851 00000013 d __FUNCTION__$12309
1056990825 00000026 d __FUNCTION__$12328
1056990812 00000013 d __FUNCTION__$12342
1057060198 00000024 d __FUNCTION__$6108
1057060186 00000012 d __FUNCTION__$6113
1057060164 00000022 d __FUNCTION__$6130
1057060121 00000022 d __FUNCTION__$6142
1057060098 00000023 d __FUNCTION__$6171
1057060079 00000019 d __FUNCTION__$6188
1057060068 00000011 d __FUNCTION__$6196
1057060055 00000013 d __FUNCTION__$6201
1057060037 00000018 d __FUNCTION__$6231
1057060018 00000019 d __FUNCTION__$6236
1056994981 00000015 d __FUNCTION__$6561
1057043769 00000022 d __FUNCTION__$6929
1057043647 00000025 d __FUNCTION__$6938
1057043617 00000016 d __FUNCTION__$6956
1057043697 00000015 d __FUNCTION__$6978
1057043712 00000013 d __FUNCTION__$6999
1057043672 00000025 d __FUNCTION__$7062
1057043725 00000023 d __FUNCTION__$7074
1057043633 00000014 d __FUNCTION__$7094
1057043748 00000021 d __FUNCTION__$7111
1057043587 00000030 d __FUNCTION__$7134
1057043562 00000025 d __FUNCTION__$7153
1057043791 00000032 d __FUNCTION__$7168
1057043823 00000024 d __FUNCTION__$7187
1056988690 00000015 d __FUNCTION__$7456
1056988674 00000016 d __FUNCTION__$7460
1056988657 00000017 d __FUNCTION__$7464
1056988639 00000018 d __FUNCTION__$7468
1057058458 00000017 d __FUNCTION__$7471
1056988620 00000019 d __FUNCTION__$7473
1056988578 00000025 d __FUNCTION__$7478
1056988603 00000017 d __FUNCTION__$7482
1056988560 00000018 d __FUNCTION__$7486
1056988470 00000019 d __FUNCTION__$7490
1056988489 00000018 d __FUNCTION__$7494
1056988431 00000020 d __FUNCTION__$7498
1057058444 00000014 d __FUNCTION__$7500
1056988451 00000019 d __FUNCTION__$7502
1056988400 00000016 d __FUNCTION__$7506
1056988416 00000015 d __FUNCTION__$7510
1056988545 00000015 d __FUNCTION__$7515
1056988526 00000019 d __FUNCTION__$7523
1056988507 00000019 d __FUNCTION__$7535
1056988363 00000025 d __FUNCTION__$7573
1056988342 00000021 d __FUNCTION__$7581
1056988324 00000018 d __FUNCTION__$7602
1056988305 00000019 d __FUNCTION__$7609
1056990543 00000021 d __FUNCTION__$7686
1056990522 00000021 d __FUNCTION__$7691
1056990503 00000019 d __FUNCTION__$7696
1056990484 00000019 d __FUNCTION__$7701
1056990468 00000016 d __FUNCTION__$7706
1056990452 00000016 d __FUNCTION__$7711
1056990434 00000018 d __FUNCTION__$7716
1056990416 00000018 d __FUNCTION__$7721
1056990394 00000022 d __FUNCTION__$7726
1056990167 00000024 d __FUNCTION__$7760
1057059528 00000013 d __FUNCTION__$7760
1056990371 00000023 d __FUNCTION__$7766
1056990346 00000025 d __FUNCTION__$7809
1056990326 00000020 d __FUNCTION__$7839
1056990308 00000018 d __FUNCTION__$7850
1057059505 00000023 d __FUNCTION__$7861
1057059492 00000013 d __FUNCTION__$7869
1056990295 00000013 d __FUNCTION__$7870
1056990277 00000018 d __FUNCTION__$7890
1057059461 00000020 d __FUNCTION__$7891
1056990260 00000017 d __FUNCTION__$7895
1057059481 00000011 d __FUNCTION__$7906
1057058178 00000018 d __FUNCTION__$7909
1057058160 00000018 d __FUNCTION__$7914
1057058142 00000018 d __FUNCTION__$7918
1057059444 00000017 d __FUNCTION__$7929
1056990242 00000018 d __FUNCTION__$7940
1056988854 00000014 d __FUNCTION__$7959
1056988838 00000016 d __FUNCTION__$7963
1056990207 00000017 d __FUNCTION__$7978
1057059423 00000021 d __FUNCTION__$7987
1056988815 00000023 d __FUNCTION__$7987
1057059404 00000019 d __FUNCTION__$7993
1056990191 00000016 d __FUNCTION__$7996
1056988795 00000020 d __FUNCTION__$8000
1056988773 00000022 d __FUNCTION__$8008
1056990140 00000027 d __FUNCTION__$8008
1056990111 00000029 d __FUNCTION__$8013
1057059387 00000017 d __FUNCTION__$8014
1056990094 00000017 d __FUNCTION__$8019
1057059367 00000020 d __FUNCTION__$8029
1056988750 00000023 d __FUNCTION__$8031
1056990074 00000020 d __FUNCTION__$8046
1057059350 00000017 d __FUNCTION__$8050
1056990055 00000019 d __FUNCTION__$8052
1057059328 00000022 d __FUNCTION__$8070
1056990028 00000027 d __FUNCTION__$8072
1056990008 00000020 d __FUNCTION__$8082
1057058125 00000017 d __FUNCTION__$8153
1057058089 00000016 d __FUNCTION__$8158
1057058072 00000017 d __FUNCTION__$8166
1057058050 00000022 d __FUNCTION__$8173
1057058029 00000021 d __FUNCTION__$8187
1057058013 00000016 d __FUNCTION__$8195
1056999524 00000027 d __FUNCTION__$8203
1057057992 00000021 d __FUNCTION__$8232
1056990971 00000019 d __FUNCTION__$8798
1073769952 A __gcc_bcmp
1073764804 A __gedf2
1073763944 A __gesf2
1073935432 00000018 T __getreent
1074943672 00000008 T __gettzinfo
1073503656 00000004 D __global_locale_ptr
1073764664 A __gtdf2
1073763836 A __gtsf2
1074840368 00000711 T __gxx_personality_v0
1074944356 00000071 T __hi0bits
1074944540 00000039 T __i2b
1074899500 00000379 T __ieee754_sqrt
1057155660 A __init_array_end
1057155580 A __init_array_start
1074902548 00000060 T __itoa
1073764704 A __ledf2
1073763868 A __lesf2
1074944428 00000112 T __lo0bits
1073749036 A __locale_ctype_ptr
1073749028 A __locale_ctype_ptr_l
1073749004 00000016 A __locale_mb_cur_max
1074943728 00000010 T __localeconv_l
1073519220 00000084 B __lock___arc4random_mutex
1073519220 00000084 B __lock___at_quick_exit_mutex
1073519136 00000084 B __lock___atexit_recursive_mutex
1073519220 00000084 B __lock___dd_hash_mutex
1073519136 00000084 B __lock___env_recursive_mutex
1073519136 00000084 B __lock___malloc_recursive_mutex
1073519136 00000084 B __lock___sfp_recursive_mutex
1073519136 00000084 B __lock___sinit_recursive_mutex
1073519220 00000084 B __lock___tz_mutex
1074945036 00000172 T __lshift
1073852468 00000024 A __lshrdi3
1073764844 A __ltdf2
1073763976 A __ltsf2
1074945208 00000056 T __mcmp
1074945264 00000226 T __mdiff
1073853748 00000686 A __moddi3
1073852328 A __modsi3
1057062816 00000096 D __month_lengths
1057068480 00000040 D __mprec_bigtens
1057068520 00000200 D __mprec_tens
1057068440 00000040 D __mprec_tinytens
1073766156 A __muldc3
1073764328 A __muldf3
1073852900 A __muldi3
1073765284 A __mulsc3
1073763620 A __mulsf3
1073852312 A __mulsi3
1074944064 00000133 T __multadd
1074944580 00000287 T __multiply
1073778256 A __mulvdi3
1073778232 A __mulvsi3
1073764612 A __nedf2
1073764092 A __negdf2
1073852924 A __negdi2
1073774992 A __negsf2
1073778540 A __negvdi2
1073778508 A __negvsi2
1073763792 A __nesf2
1073399920 A __nsau_data
1074979404 00000023 t __onPinInterrupt
1073778744 A __paritysi2
1073514388 00000188 b __pin_attenuation
1073514580 00000564 b __pinInterruptHandlers
1074436700 00000122 T __pinMode
1073399920 A __popcount_tab
1073778656 A __popcountdi2
1073778600 00000055 A __popcountsi2
1074944868 00000167 T __pow5mult
1073765184 A __powidf2
1073765112 A __powisf2
1074945908 00000083 T __ratio
1074939756 00000178 T __register_exitproc
1074849088 00000026 T __register_frame
1074849072 00000016 T __register_frame_info
1074849008 00000062 T __register_frame_info_bases
1074849172 00000016 T __register_frame_info_table
1074849116 00000054 T __register_frame_info_table_bases
1074849188 00000022 T __register_frame_table
1073906944 00000019 T __retarget_lock_acquire
1073906964 00000019 T __retarget_lock_acquire_recursive
1073906928 00000015 T __retarget_lock_close_recursive
1073906908 00000019 T __retarget_lock_init_recursive
1073906984 00000019 T __retarget_lock_release
1073907004 00000019 T __retarget_lock_release_recursive
1074944200 00000153 T __s2b
1074939372 00000151 t __sbprintf
1074975768 00000151 t __sbprintf
1074988652 00000125 T __sccl
1073850112 00000018 A __sclose
1073850000 00000007 A __seofread
1073410188 00000032 A __sf_fake_stderr
1073410252 00000032 A __sf_fake_stdin
1073410220 00000032 A __sf_fake_stdout
1074943408 00000128 T __sflags
1073748444 00000343 A __sflush_r
1073849544 00000054 A __sfmoreglue
1073849744 00000176 A __sfp
1073849608 00000014 A __sfp_lock_acquire
1073849620 00000014 A __sfp_lock_release
1073741192 A __sfp_recursive_mutex
1073746704 00000705 A __sfvwrite_r
1073849656 00000103 A __sinit
1073849632 00000014 A __sinit_lock_acquire
1073849644 00000014 A __sinit_lock_release
1073741188 A __sinit_recursive_mutex
1073748308 00000139 A __smakebuf_r
1074967332 00000036 T __sprint_r
1073849952 00000052 A __sread
1074905572 00000296 T __srefill_r
1073850060 00000056 A __sseek
1074948788 00000265 T __ssprint_r
1074957380 00000063 T __ssrefill_r
1074957556 00008081 T __ssvfiscanf_r
1073899280 00000009 T __stack_chk_fail
1073515740 00000004 B __stack_chk_guard
1057069528 00000108 D __state_table
1074907508 00002806 t __strftime
1073852184 A __strtok_r
1073776564 A __subdf3
1074965640 00000106 T __submore
1073775264 A __subsf3
1073778164 A __subvdi3
1073778128 A __subvsi3
1073747580 00000020 A __swbuf
1073747388 00000166 A __swbuf_r
1073748216 00000118 A __swhatbuf_r
1073850008 00000056 A __swrite
1073747600 00000223 A __swsetup_r
1074314572 00000011 t __tcf_0
1074842328 00000011 t __tcf_0
1073777764 A __truncdfsf2
1074924716 00000014 T __tz_lock
1074924732 00000014 T __tz_unlock
1074924352 00000362 T __tzcalc_limits
1073524264 00000011 b __tzname_dst
1073524275 00000011 b __tzname_std
1073928264 00000005 T __ubsan_include
1073765020 A __ucmpdi2
1073770008 A __udiv_w_sdiv
1073854428 00000622 A __udivdi3
1073770016 A __udivmoddi4
1073852336 A __udivsi3
1074945492 00000072 T __ulp
1073855072 00000626 A __umoddi3
1073852344 A __umodsi3
1073852352 A __umulsidi3
1073764944 A __unorddf2
1073764052 A __unordsf2
1074925744 00000099 T __utoa
1074622980 00000842 T __wpa_send_eapol
1074586172 00000148 T __wrap_esp_log_write
1074586148 00000023 T __wrap_esp_log_writev
1057155716 A __XT_EXCEPTION_DESCS_
1057155716 A __XT_EXCEPTION_DESCS_END__
1057070628 A __XT_EXCEPTION_TABLE_
1073939156 00000030 T __xtensa_libgcc_window_spill
1073939188 00000064 T __xtensa_nonlocal_goto
1073939252 00000008 T __xtensa_sync_caches
1074437064 00000011 T __yield
1074899920 00000021 T _atoi_r
1074899960 00000021 T _atol_r
1074943852 00000141 T _Balloc
1074943996 00000066 T _Bfree
1073537176 A _bss_end
1073512808 A _bss_start
1073537176 A _bt_bss_end
1073537176 A _bt_bss_start
1073537176 A _bt_common_end
1073537176 A _bt_common_start
1073508088 A _bt_data_end
1073508088 A _bt_data_start
1073537176 A _btdm_bss_end
1073537176 A _btdm_bss_start
1073537176 A _btdm_common_end
1073537176 A _btdm_common_start
1073508088 A _btdm_data_end
1073508088 A _btdm_data_start
1057066732 00000252 D _C_time_locale
1073949688 00000035 T _calloc_r
1073849472 00000016 A _cleanup_r
1074483692 00000133 T _close_r
1074769244 00000078 T _cnx_start_connect_without_scan
1073508088 A _coredump_dram_end
1073508088 A _coredump_dram_start
1073890308 T _coredump_iram_end
1073890308 T _coredump_iram_start
1342177280 A _coredump_rtc_end
1073340416 A _coredump_rtc_fast_end
1073340416 A _coredump_rtc_fast_start
1342177280 A _coredump_rtc_start
1073399660 00000257 A _ctype_
1073512808 A _data_end
1073340416 A _data_seg_org
1073495744 A _data_start
1073524292 00000004 B _daylight
1057062720 00000048 d _DAYS_BEFORE_MONTH
1073889920 T _DebugExceptionVector
1074716140 00000114 T _do_wifi_start
1074716076 00000060 T _do_wifi_stop
1073890240 T _DoubleExceptionVector
1073740304 A _dram0_rtos_reserved_start
1074940208 00003200 T _dtoa_r
1073519616 00000012 b _efs
1073519628 00000004 b _efs_lock
1073928232 00000022 T _esp_error_check_failed
00000016 A _esp_flash_mmap_prefetch_pad_size
00000004 A _esp_memprot_align_size
00000016 A _esp_memprot_prefetch_pad_size
1073495752 A _esp_system_init_fn_array_end
1073495744 A _esp_system_init_fn_array_start
1074495096 00000126 T _esp_wifi_clear_default_wifi_handlers
1074495224 00000218 T _esp_wifi_set_default_wifi_handlers
1075014795 T _etext
1074583208 00000009 T _exit
1062207488 A _ext_ram_bss_end
1062207488 A _ext_ram_bss_start
1073850132 00000268 A _fclose_r
1073748784 00000140 A _fflush_r
1074943536 00000120 T _findenv_r
1075014776 T _fini
00000000 A _flash_cache_start
00000016 A _flash_rodata_align
1056964896 A _flash_rodata_start
1074900144 00000198 T _fopen_r
1073747960 A _fputwc_r
1074900364 00000262 T _fread_r
1073949656 00000010 T _free_r
1073928512 T _frxt_dispatch
1073928296 T _frxt_int_enter
1073928364 T _frxt_int_exit
1073928272 T _frxt_setup_switch
1073928484 T _frxt_tick_timer_init
1073928444 T _frxt_timer_int
1074900652 00000021 T _fseek_r
1074900704 00000789 T _fseeko_r
1074483828 00000068 T _fstat_r
1074901520 00000017 T _ftell_r
1074901564 00000259 T _ftello_r
1073855724 00000055 A _fwalk
1073855780 00000063 A _fwalk_reent
1074901844 00000185 T _fwrite_r
1056999824 00000036 D _g_esp_netif_inherent_ap_config
1056999860 00000036 D _g_esp_netif_inherent_sta_config
1073496600 00000004 D _g_esp_netif_netstack_default_wifi_ap
1073496604 00000004 D _g_esp_netif_netstack_default_wifi_sta
1056999760 00000012 D _g_esp_netif_soft_ap_ip
1074437884 00000031 T _get_effective_baudrate
1074943656 00000016 T _getenv_r
1074981904 00000011 T _getpid_r
1073907164 00000014 T _gettimeofday_r
1073907080 00000084 t _gettimeofday_r$part$0
1074841540 00000018 t _GLOBAL__sub_D___cxa_get_globals_fast
1074841368 00000011 t _GLOBAL__sub_D__ZN10__cxxabiv111__terminateEPFvvE
1074881852 00000020 t _GLOBAL__sub_D__ZN11UpdateClass16_enablePartitionEPK15esp_partition_t
1074335180 00000011 t _GLOBAL__sub_D__ZN12LittleFSImplC2Ev
1074327244 00000011 t _GLOBAL__sub_D__ZN3JCA3SYS8DebugOutC2ERK14HardwareSerial
1074436196 00000011 t _GLOBAL__sub_D__ZN6StringC2EPKc
1074865812 00000017 t _GLOBAL__sub_D__ZN7TwoWireC2Eh
1074839708 00000011 t _GLOBAL__sub_D__ZN9__gnu_cxx9__freeresEv
1074839260 00000011 t _GLOBAL__sub_D__ZSt7nothrow
1074863640 00000040 t _GLOBAL__sub_D_ARDUINO_EVENTS
1074285912 00000017 t _GLOBAL__sub_D_IotServer
1074430852 00000017 t _GLOBAL__sub_D_Serial
1074841504 00000034 t _GLOBAL__sub_I___cxa_get_globals_fast
1074841352 00000013 t _GLOBAL__sub_I__ZN10__cxxabiv111__terminateEPFvvE
1074859632 00000076 t _GLOBAL__sub_I__ZN11AsyncClient10_tcp_errorEPva
1074881840 00000011 t _GLOBAL__sub_I__ZN11UpdateClass16_enablePartitionEPK15esp_partition_t
1074335168 00000011 t _GLOBAL__sub_I__ZN12LittleFSImplC2Ev
1074327228 00000014 t _GLOBAL__sub_I__ZN3JCA3SYS8DebugOutC2ERK14HardwareSerial
1074436180 00000014 t _GLOBAL__sub_I__ZN6StringC2EPKc
1074865788 00000023 t _GLOBAL__sub_I__ZN7TwoWireC2Eh
1074839624 00000082 t _GLOBAL__sub_I__ZN9__gnu_cxx9__freeresEv
1074431052 00000017 t _GLOBAL__sub_I__ZN9IPAddressC2Ev
1074859708 00000021 t _GLOBAL__sub_I__ZN9WiFiClass9printDiagER5Print
1074839244 00000013 t _GLOBAL__sub_I__ZSt7nothrow
1074863624 00000016 t _GLOBAL__sub_I_ARDUINO_EVENTS
1074285636 00000094 t _GLOBAL__sub_I_IotServer
1074430828 00000023 t _GLOBAL__sub_I_Serial
1073741196 00000004 A _global_impure_ptr
1073496160 00000008 d _gpio_hal
1073741824 A _heap_end
1073537176 A _heap_start
1073502880 00000096 d _i2c_bus_array
1073890304 T _init
1073890307 A _init_end
1075014795 A _instruction_reserved_end
1074266144 A _instruction_reserved_start
1073890304 A _invalid_pc_placeholder
1073954492 A _iram_end
1073889280 A _iram_start
1073954492 A _iram_text_end
1073890308 A _iram_text_start
1073772704 00000011 A _isatty_r
1073890048 T _KernelExceptionVector
1074981904 00000011 T _kill_r
1074885880 00000044 t _ledc_fade_hw_acquire
1074885756 00000036 t _ledc_fade_hw_release
1073889664 T _Level2Vector
1073889728 T _Level3Vector
1073889792 T _Level4Vector
1073889856 T _Level5Vector
1074484040 00000095 T _link_r
1057155764 A _lit4_end
1057155764 A _lit4_start
1074943740 00000015 T _localeconv_r
1073906812 00000014 T _lock_acquire
1073906828 00000014 T _lock_acquire_recursive
1073906752 00000058 T _lock_close
1073906752 00000058 T _lock_close_recursive
1073906712 00000019 T _lock_init
1073906732 00000019 T _lock_init_recursive
1073906876 00000015 T _lock_release
1073906892 00000015 T _lock_release_recursive
1073906844 00000016 T _lock_try_acquire
1073906860 00000016 T _lock_try_acquire_recursive
1074483544 00000071 T _lseek_r
1073949644 00000012 T _malloc_r
1074943772 00000053 T _mbrtowc_r
1073773024 00000028 A _mbtowc_r
1074945992 00000053 T _mprec_log10
1073537176 A _nimble_bss_end
1073537176 A _nimble_bss_start
1073537176 A _nimble_common_end
1073537176 A _nimble_common_start
1073508800 A _nimble_data_end
1073508800 A _nimble_data_start
1073889984 T _NMIExceptionVector
1073512808 A _noinit_end
1073512808 A _noinit_start
1074483276 00000192 T _open_r
1073741184 00000004 A _PathLocale
1074904760 00000056 T _printf_r
1074904880 00000180 T _puts_r
1074583208 00000009 T _raise_r
1074483616 00000075 T _read_r
1073949668 00000017 T _realloc_r
1074905316 00000228 T _reclaim_reent
1074484200 00000095 T _rename_r
1057155764 A _rodata_end
1057155764 A _rodata_reserved_end
1056964640 A _rodata_reserved_start
1056964640 A _rodata_start
1342177281 A _rtc_bss_end
1342177281 A _rtc_bss_start
1074200576 ? _rtc_code_end
1074200576 ? _rtc_code_start
1342177281 A _rtc_data_end
1342177280 A _rtc_data_start
1073340416 A _rtc_dummy_end
1073340416 A _rtc_dummy_start
00000000 B _rtc_fast_length
1073340416 A _rtc_fast_start
1073340416 A _rtc_force_fast_end
1073340416 A _rtc_force_fast_start
1342177304 A _rtc_force_slow_end
1342177304 A _rtc_force_slow_start
1342177304 A _rtc_noinit_end
1342177288 A _rtc_noinit_start
00000024 B _rtc_slow_length
1074200576 A _rtc_text_end
1074200576 A _rtc_text_start
1074583208 00000009 T _sbrk_r
1073748956 00000051 A _setlocale_r
1074957444 00000112 T _sfread_r
1074946380 00000086 T _siscanf_r
1074946468 00000102 T _sniprintf_r
1074906324 00000102 T _snprintf_r
1074906544 00000072 T _sprintf_r
1074483972 00000068 T _stat_r
1073537176 A _static_data_end
1074266144 T _stext
1073773976 00000040 A _strdup_r
1074906704 00000530 T _strerror_r
1073774588 00000065 A _strndup_r
1074910360 00000283 t _strtol_l$isra$0
1074910644 00000018 T _strtol_r
1074946688 00000380 t _strtoll_l$isra$0
1074947068 00000020 T _strtoll_r
1074910712 00000241 t _strtoul_l$isra$0
1074910956 00000018 T _strtoul_r
1074947136 00000368 t _strtoull_l$isra$0
1074947504 00000020 T _strtoull_r
1074957256 00000124 T _sungetc_r
1074949056 00008130 T _svfiprintf_r
1074912240 00011979 T _svfprintf_r
1074981904 00000011 T _system_r
1075014795 A _text_end
1074266144 A _text_start
1057155764 A _thread_local_end
1057155764 A _thread_local_start
1073907180 00000032 T _times_r
1073524288 00000004 B _timezone
1073503580 00000008 D _tzname
1074925724 00000018 T _tzset_r
1074924748 00000014 T _tzset_unlocked
1074924788 00000936 T _tzset_unlocked_r
1073496112 00000024 d _uart_bus_array
1074965748 00000346 T _ungetc_r
1074484136 00000063 T _unlink_r
1074846440 00000084 T _Unwind_Backtrace
1074846424 00000016 T _Unwind_DeleteException
1074849392 00000202 T _Unwind_Find_FDE
1074845684 00000021 T _Unwind_FindEnclosingFunction
1074845964 00000147 T _Unwind_ForcedUnwind
1074845484 00000116 t _Unwind_ForcedUnwind_Phase2
1074845600 00000007 T _Unwind_GetCFA
1074845708 00000007 T _Unwind_GetDataRelBase
1074845320 00000025 T _Unwind_GetGR
1074845636 00000007 T _Unwind_GetIP
1074845644 00000014 T _Unwind_GetIPInfo
1074845668 00000007 T _Unwind_GetLanguageSpecificData
1074845676 00000007 T _Unwind_GetRegionStart
1074845716 00000007 T _Unwind_GetTextRelBase
1074845724 00000238 T _Unwind_RaiseException
1074845384 00000100 t _Unwind_RaiseException_Phase2
1074846112 00000154 T _Unwind_Resume
1074846268 00000156 T _Unwind_Resume_or_Rethrow
1074848996 00000011 T _Unwind_SetEnableExceptionFdeSorting
1074845608 00000025 T _Unwind_SetGR
1074845660 00000007 T _Unwind_SetIP
1073921152 00000005 W _Unwind_SetNoFunctionContextInstall
1073921152 00000005 t _Unwind_SetNoFunctionContextInstall_Default
1074988644 00000007 T _user_strerror
1073890112 T _UserExceptionVector
1073889280 A _vector_table
1074967368 00008362 T _vfiprintf_r
1074927076 00012258 T _vfprintf_r
1074939576 00000046 T _vprintf_r
1074939624 00000086 T _vsnprintf_r
1073746592 A _wcrtomb_r
1073748140 00000028 A _wctomb_r
1073889536 T _WindowOverflow12
1073889280 T _WindowOverflow4
1073889408 T _WindowOverflow8
1073889600 T _WindowUnderflow12
1073889344 T _WindowUnderflow4
1073889472 T _WindowUnderflow8
1074483468 00000075 T _write_r
1073889360 T _xt_alloca_exc
1073928784 T _xt_context_restore
1073928636 T _xt_context_save
1073906364 t _xt_debugexception
1073496960 D _xt_exception_table
1073906388 t _xt_highint4
1073906396 t _xt_highint5
1073496704 D _xt_interrupt_table
1073905624 t _xt_kernel_exc
1073905864 t _xt_lowint1
1073906020 t _xt_medint2
1073906172 T _xt_medint2_exit
1073906192 t _xt_medint3
1073906344 T _xt_medint3_exit
1073906404 T _xt_nmi
1073907612 T _xt_panic
1073905816 t _xt_syscall_exc
1073518464 00000004 B _xt_tick_divisor
1073928836 00000028 T _xt_tick_divisor_init
1073905640 t _xt_to_alloca_exc
1073905648 t _xt_to_syscall_exc
1073905652 t _xt_user_exc
1073905796 T _xt_user_exit
1073850560 A _xtos_set_intlevel
1074281980 00000010 T _Z10cbWsUpdateRN11ArduinoJson8V741PB2211JsonVariantES2_
1074979116 00000005 W _Z11serialEventv
1074281968 00000010 T _Z12cbRestApiGetRN11ArduinoJson8V741PB2211JsonVariantES2_
1074282320 00000176 T _Z12cbRestApiPutRN11ArduinoJson8V741PB2211JsonVariantES2_
1074278808 00000098 T _Z12cbSaveConfigv
1074299768 00000142 T _Z12genRandomMD5v
1074281888 00000079 T _Z12getAllValuesRN11ArduinoJson8V741PB2211JsonVariantE
1074280204 00000094 T _Z12linkHardwarev
1074979124 00000005 W _Z12serialEvent1v
1074284992 00000010 T _Z13cbRestApiPostRN11ArduinoJson8V741PB2211JsonVariantES2_
1074278796 00000011 T _Z13cbSystemResetv
1074285024 00000384 T _Z14cbRestApiPatchRN11ArduinoJson8V741PB2211JsonVariantES2_
1074429944 00000036 W _Z14serialEventRunv
1074282104 00000216 T _Z15cbRestApiDeleteRN11ArduinoJson8V741PB2211JsonVariantES2_
1074278780 00000013 T _Z16cbWebHomeReplaceRK6String
1074860604 00000068 T _Z16postArduinoEventP15arduino_event_t
1074861544 00000296 T _Z16wifiLowLevelInitb
1074439812 00000054 T _Z16yieldIfNecessaryv
1074299360 00000255 T _Z17generateBasicHashPKcS0_
1074278952 00000013 T _Z18cbWebConfigReplaceRK6String
1074286624 00000422 T _Z18webSocketSendFrameP11AsyncClientbhbPhj
1074859732 00000134 T _Z18wifi_softap_configP13wifi_config_tPKcS2_h16wifi_auth_mode_thhbt
1074862268 00000479 T _Z20set_esp_interface_ip15esp_interface_t9IPAddressS0_S0_S0_
1074279324 00000084 T _Z21addFunctionsToHandlerv
1074860496 00000106 T _Z21set_esp_interface_dns15esp_interface_t9IPAddressS0_S0_
1074860440 00000022 T _Z23get_esp_interface_netif15esp_interface_t
1074860412 00000028 T _Z23get_esp_netif_interfaceP13esp_netif_obj
1074299616 00000151 T _Z24checkBasicAuthenticationPKcS0_S0_
1074286584 00000039 T _Z24webSocketSendFrameWindowP11AsyncClient
1074299912 00001982 T _Z25checkDigestAuthenticationPKcS0_S0_S0_S0_bS0_S0_S0_
1074860464 00000032 T _Z26set_esp_interface_hostname15esp_interface_tPKc
1074439912 00000008 W _Z27getArduinoLoopTaskStackSizev
1074279408 00000030 T _Z4loopv
1074280300 00000960 T _Z5setupv
1074977164 00000030 T _Z6memchrPvij
1074284708 00000282 T _Z6setAllRN11ArduinoJson8V741PB2211JsonVariantE
1074285004 00000018 T _Z8cbWsDataRN11ArduinoJson8V741PB2211JsonVariantES2_
1074439868 00000044 T _Z8loopTaskPv
1074861272 00000269 T _Z9tcpipInitv
1074839304 00000010 T _ZdaPv
1074839292 00000010 T _ZdaPvRKSt9nothrow_t
1074839776 00000014 T _ZdlPv
1074838796 00000010 T _ZdlPvj
1074899028 00000014 T _ZdlPvRKSt9nothrow_t
1073523408 00000008 b _ZGVZN12_GLOBAL__N_116get_atomic_mutexEvE12atomic_mutex
1073514064 00000008 V _ZGVZN14DefaultHeaders8InstanceEvE8instance
1073514192 00000004 b _ZL10_udp_queue
1073523400 00000008 b _ZL10eh_globals
1073523600 00000012 b _ZL10esp_netifs
1056980665 00001093 d _ZL10SectionSys
1073523516 00000004 b _ZL11_slots_lock
1073502868 00000004 d _ZL11_sta_status
1074854956 00000038 t _ZL11_tcp_recvedP7tcp_pcbaj
1073523540 00000012 b _ZL11cbEventList
1056970501 00000018 d _ZL12__WS_STR_KEY
1073523524 00000004 b _ZL12_async_queue
1074986128 00000060 t _ZL12read_sleb128PKhPl
1074986088 00000037 t _ZL12read_uleb128PKhPm
1056970592 00000064 d _ZL12sha1_padding
1056970420 00000037 d _ZL13__WS_STR_UUID
1073523448 00000004 b _ZL13_closed_index
1073523452 00000064 b _ZL13_closed_slots
1074855260 00000026 t _ZL13_tcp_bind_apiP19tcpip_api_call_data
1074395024 00000026 t _ZL13_udp_bind_apiP19tcpip_api_call_data
1074863680 00000039 t _ZL13_wifi_strncpyPcPKcj
1073515680 00000012 b _ZL13s_nvs_handles
1074855076 00000042 t _ZL14_tcp_abort_apiP19tcpip_api_call_data
1074855216 00000042 t _ZL14_tcp_close_apiP19tcpip_api_call_data
1074855520 00000059 t _ZL14_tcp_connectedPvP7tcp_pcba
1074855120 00000050 t _ZL14_tcp_write_apiP19tcpip_api_call_data
1056981758 00000666 d _ZL14SectionConnect
1056970457 00000021 d _ZL15__WS_STR_ACCEPT
1074855288 00000023 t _ZL15_tcp_listen_apiP19tcpip_api_call_data
1074855172 00000042 t _ZL15_tcp_output_apiP19tcpip_api_call_data
1074855024 00000050 t _ZL15_tcp_recved_apiP19tcpip_api_call_data
1074394976 00000021 t _ZL15_udp_remove_apiP19tcpip_api_call_data
1074395084 00000026 t _ZL15_udp_sendto_apiP19tcpip_api_call_data
1074395112 00000084 t _ZL15_udp_task_startv
1057056280 00000032 d _ZL15dscrc2x16_table
1074841380 00000035 t _ZL15eh_globals_dtorPv
1074840012 00000078 t _ZL15get_ttype_entryP16lsda_header_infom
1073499512 00000008 d _ZL15s_init_spinlock
1056970541 00000008 d _ZL16__WS_STR_UPGRADE
1056970519 00000022 d _ZL16__WS_STR_VERSION
1074854996 00000026 t _ZL16_tcp_connect_apiP19tcpip_api_call_data
1073514188 00000004 b _ZL16_udp_task_handle
1073523568 00000032 b _ZL16default_hostname
1074986188 00000052 t _ZL16get_adjusted_ptrPKSt9type_infoS1_PPv
1073523554 00000001 b _ZL16lowLevelInitDone
1056970478 00000023 d _ZL17__WS_STR_PROTOCOL
1074860672 00000598 t _ZL17_arduino_event_cbPvPKciS_
1073523552 00000001 b _ZL17_esp_wifi_started
1074854856 00000040 t _ZL17_send_async_eventPP23lwip_tcp_event_packet_tj
1073523616 00000004 b _ZL17_sta_status_group
1074855580 00000083 t _ZL17_start_async_taskv
1074855468 00000051 t _ZL17_tcp_clear_eventsPv
1074840264 00000104 t _ZL17parse_lsda_headerP15_Unwind_ContextPKhP16lsda_header_info
1074395052 00000030 t _ZL18_udp_sendto_if_apiP19tcpip_api_call_data
1074460932 00000034 t _ZL18nvs_find_ns_handlejPPN3nvs15NVSHandleSimpleE
1074840236 00000028 t _ZL18read_encoded_valueP15_Unwind_ContexthPKhPj
1056970549 00000011 d _ZL19__WS_STR_CONNECTION
1074863580 00000043 t _ZL19_arduino_event_taskPv
1074858448 00000512 t _ZL19_async_service_taskPv
1074395000 00000021 t _ZL19_udp_disconnect_apiP19tcpip_api_call_data
1074461012 00000109 t _ZL19nvs_get_str_or_blobjN3nvs8ItemTypeEPKcPvPj
1073519596 00000004 b _ZL19s_static_init_mutex
1073523556 00000004 b _ZL20_arduino_event_group
1073523564 00000004 b _ZL20_arduino_event_queue
1074880572 00000076 t _ZL20_partitionIsBootablePK15esp_partition_t$part$1
1074855428 00000040 t _ZL20_prepend_async_eventPP23lwip_tcp_event_packet_tj$constprop$17
1074840092 00000056 t _ZL20check_exception_specP16lsda_header_infoPKSt9type_infoPvl
1074583948 00000038 t _ZL20signal_waiting_tasksv
1074840148 00000088 t _ZL21base_of_encoded_valuehP15_Unwind_Context
1074860372 00000040 t _ZL22get_esp_netif_hostnamev$part$0
1073519592 00000004 b _ZL22s_static_init_wait_sem
1074838808 00000043 t _ZL23__gxx_exception_cleanup19_Unwind_Reason_CodeP17_Unwind_Exception
1073523560 00000004 b _ZL26_arduino_event_task_handle
1073523520 00000004 b _ZL26_async_service_task_handle
1073519588 00000004 b _ZL27s_static_init_waiting_count
1074839792 00000219 t _ZL28read_encoded_value_with_basehjPKhPj
1073519584 00000004 b _ZL31s_static_init_max_waiting_count
1073523392 00000008 b _ZL4init
1074299136 00000064 t _ZL6getMD5PhtPc
1056986073 00000331 d _ZL7SvgHome
1056983340 00000634 d _ZL7SvgLogo
1056984688 00000604 d _ZL7SvgWiFi
1074880480 00000092 t _ZL8_err2strh
1342177280 00000001 d _ZL8overflow
1074855312 00000114 t _ZL9_tcp_pollPvP7tcp_pcb
1074856768 00000091 t _ZL9_tcp_recvPvP7tcp_pcbP4pbufa
1074854896 00000058 t _ZL9_tcp_sentPvP7tcp_pcbt
1074395196 00000111 t _ZL9_udp_recvPvP7udp_pcbP4pbufPK7ip_addrt
1074396272 00000066 t _ZL9_udp_taskPv
1056982424 00000916 d _ZL9PageFrame
1074299200 00000158 t _ZL9stringMD5RK6String
1056985292 00000781 d _ZL9SvgConfig
1056983974 00000714 d _ZL9SvgSystem
1074841208 00000050 T _ZN10__cxxabiv111__terminateEPFvvE
1074841300 00000009 T _ZN10__cxxabiv112__unexpectedEPFvvE
1074843080 00000020 T _ZN10__cxxabiv117__class_type_infoD0Ev
1074843060 00000018 T _ZN10__cxxabiv117__class_type_infoD1Ev
1074843060 00000018 T _ZN10__cxxabiv117__class_type_infoD2Ev
1073502848 00000004 D _ZN10__cxxabiv119__terminate_handlerE
1074841780 00000020 T _ZN10__cxxabiv120__si_class_type_infoD0Ev
1074841760 00000018 T _ZN10__cxxabiv120__si_class_type_infoD1Ev
1074841760 00000018 T _ZN10__cxxabiv120__si_class_type_infoD2Ev
1073502852 00000004 D _ZN10__cxxabiv120__unexpected_handlerE
1074431228 00000018 T _ZN10MD5Builder3addEPht
1074431200 00000026 T _ZN10MD5Builder5beginEv
1074431264 00000032 T _ZN10MD5Builder8getCharsEPc
1074431296 00000054 T _ZN10MD5Builder8toStringEv
1074431248 00000016 T _ZN10MD5Builder9calculateEv
1074279016 00000029 W _ZN11ArduinoJson8V741PB2210JsonStringC1EPKcb
1074279016 00000029 W _ZN11ArduinoJson8V741PB2210JsonStringC2EPKcb
1074978832 00000018 W _ZN11ArduinoJson8V741PB2212JsonDocument2asINS0_10JsonObjectEEET_v
1074336656 00000030 W _ZN11ArduinoJson8V741PB2212JsonDocument2toINS0_11JsonVariantEEENS0_6detail9VariantToIT_E4typeEv
1074335528 00000036 W _ZN11ArduinoJson8V741PB2212JsonDocumentC1EPNS0_9AllocatorE
1074335528 00000036 W _ZN11ArduinoJson8V741PB2212JsonDocumentC2EPNS0_9AllocatorE
1074335396 00000029 t _ZN11ArduinoJson8V741PB2212JsonDocumentixIPKcLi0EEENS0_6detail11MemberProxyIRS1_NS5_13StringAdapterINS5_11conditionalIXsrNS5_15IsStringLiteralIT_EE5valueESB_NS5_9remove_cvINS5_16remove_referenceISB_E4typeEE4typeEE4typeEvE13AdaptedStringEEERKSB_$isra$110
1074342196 00000042 W _ZN11ArduinoJson8V741PB2213convertToJsonI15StringSumHelperEENS0_6detail9enable_ifIXsrNS3_8IsStringIT_vEE5valueEvE4typeERKS6_NS0_11JsonVariantE
1074867532 00000061 W _ZN11ArduinoJson8V741PB2213convertToJsonI6StringEENS0_6detail9enable_ifIXsrNS3_8IsStringIT_vEE5valueEvE4typeERKS6_NS0_11JsonVariantE
1074336640 00000015 W _ZN11ArduinoJson8V741PB2217JsonArrayIteratorppEv
1074340500 00000130 W _ZN11ArduinoJson8V741PB226detail10ObjectData14getOrAddMemberINS1_9RamStringEEEPNS1_11VariantDataET_PNS1_15ResourceManagerE
1074401876 00000078 W _ZN11ArduinoJson8V741PB226detail10ObjectData7addPairEPPNS1_11VariantDataEPNS1_15ResourceManagerE
1074374928 00000210 W _ZN11ArduinoJson8V741PB226detail10ObjectData9addMemberINS1_9RamStringEEEPNS1_11VariantDataET_PNS1_15ResourceManagerE
1074335428 00000041 W _ZN11ArduinoJson8V741PB226detail10StringNode6createEjPNS0_9AllocatorE
1074977516 00000016 W _ZN11ArduinoJson8V741PB226detail10StringNode7destroyEPS2_PNS0_9AllocatorE
1074404084 00000142 W _ZN11ArduinoJson8V741PB226detail11deserializeINS1_16JsonDeserializerERNS0_12JsonDocumentERN2fs4FileEJELi0EEENS0_20DeserializationErrorEOT0_OT1_DpT2_
1074344840 00000042 W _ZN11ArduinoJson8V741PB226detail11doSerializeINS1_14JsonSerializerENS1_6WriterIN2fs4FileEvEEEEjNS0_16JsonVariantConstET0_
1074327376 00000674 W _ZN11ArduinoJson8V741PB226detail11parseNumberEPKc
1074402184 00000191 W _ZN11ArduinoJson8V741PB226detail11parseNumberIaEET_PKc
1074329508 00000154 W _ZN11ArduinoJson8V741PB226detail11parseNumberIhEET_PKc
1074872320 00000175 W _ZN11ArduinoJson8V741PB226detail11parseNumberIiEET_PKc
1074402704 00000144 W _ZN11ArduinoJson8V741PB226detail11parseNumberIjEET_PKc
1074412492 00000144 W _ZN11ArduinoJson8V741PB226detail11parseNumberImEET_PKc
1074871076 00000195 W _ZN11ArduinoJson8V741PB226detail11parseNumberIsEET_PKc
1074329992 00000154 W _ZN11ArduinoJson8V741PB226detail11parseNumberItEET_PKc
1074403488 00000067 W _ZN11ArduinoJson8V741PB226detail11VariantData10setIntegerIxEENS1_9enable_ifIXsrNS1_9is_signedIT_EE5valueEbE4typeES6_PNS1_15ResourceManagerE
1074403432 00000054 W _ZN11ArduinoJson8V741PB226detail11VariantData10setIntegerIyEENS1_9enable_ifIXsrNS1_11is_unsignedIT_EE5valueEbE4typeES6_PNS1_15ResourceManagerE
1074977656 00000052 W _ZN11ArduinoJson8V741PB226detail11VariantData13setTinyStringINS1_9RamStringEEEvRKT_
1074279512 00000155 W _ZN11ArduinoJson8V741PB226detail11VariantData5clearEPNS1_15ResourceManagerE
1074403556 00000082 W _ZN11ArduinoJson8V741PB226detail11VariantData8setFloatIdEENS1_9enable_ifIXeqstT_Li8EEbE4typeES5_PNS1_15ResourceManagerE
1074281560 00000137 W _ZN11ArduinoJson8V741PB226detail11VariantData9setStringINS1_9RamStringEEEbT_PNS1_15ResourceManagerE
1074329364 00000035 W _ZN11ArduinoJson8V741PB226detail11VariantData9setStringINS1_9RamStringEEEvPS2_T_PNS1_15ResourceManagerE
1074343644 00000216 t _ZN11ArduinoJson8V741PB226detail13doDeserializeINS1_16JsonDeserializerERNS0_12JsonDocumentENS1_6ReaderIN2fs4FileEvEENS1_22DeserializationOptionsINS1_14AllowAllFilterEEEEENS0_20DeserializationErrorEOT0_T1_T2_$isra$271$constprop$309
1074336076 00000032 W _ZN11ArduinoJson8V741PB226detail13StringBuilder11startStringEv
1074336688 00000147 W _ZN11ArduinoJson8V741PB226detail13StringBuilder4saveEPNS1_11VariantDataE
1074336108 00000050 W _ZN11ArduinoJson8V741PB226detail13StringBuilder6appendEc
1074336056 00000019 W _ZN11ArduinoJson8V741PB226detail13StringBuilderD1Ev
1074336056 00000019 W _ZN11ArduinoJson8V741PB226detail13StringBuilderD2Ev
1074283044 00000859 W _ZN11ArduinoJson8V741PB226detail13TextFormatterINS1_6WriterI6StringvEEE10writeFloatEda
1074282912 00000084 W _ZN11ArduinoJson8V741PB226detail13TextFormatterINS1_6WriterI6StringvEEE11writeStringEPKcj
1074282996 00000046 W _ZN11ArduinoJson8V741PB226detail13TextFormatterINS1_6WriterI6StringvEEE12writeIntegerIxEENS1_9enable_ifIXsrNS1_9is_signedIT_EE5valueEvE4typeESA_
1074282764 00000123 W _ZN11ArduinoJson8V741PB226detail13TextFormatterINS1_6WriterI6StringvEEE12writeIntegerIyEENS1_9enable_ifIXsrNS1_11is_unsignedIT_EE5valueEvE4typeESA_
1074282740 00000022 W _ZN11ArduinoJson8V741PB226detail13TextFormatterINS1_6WriterI6StringvEEE8writeRawEPKc
1074343860 00000415 W _ZN11ArduinoJson8V741PB226detail13TextFormatterINS1_6WriterIN2fs4FileEvEEE10writeFloatEda
1074344276 00000092 W _ZN11ArduinoJson8V741PB226detail13TextFormatterINS1_6WriterIN2fs4FileEvEEE11writeStringEPKcj
1074344368 00000046 W _ZN11ArduinoJson8V741PB226detail13TextFormatterINS1_6WriterIN2fs4FileEvEEE12writeIntegerIxEENS1_9enable_ifIXsrNS1_9is_signedIT_EE5valueEvE4typeESB_
1074342460 00000127 W _ZN11ArduinoJson8V741PB226detail13TextFormatterINS1_6WriterIN2fs4FileEvEEE12writeIntegerIyEENS1_9enable_ifIXsrNS1_11is_unsignedIT_EE5valueEvE4typeESB_
1074342432 00000026 W _ZN11ArduinoJson8V741PB226detail13TextFormatterINS1_6WriterIN2fs4FileEvEEE8writeRawEPKc
1074335564 00000489 W _ZN11ArduinoJson8V741PB226detail14decomposeFloatEda
1074978748 00000082 W _ZN11ArduinoJson8V741PB226detail14MemoryPoolListINS1_15ResourceManager8SlotDataEE11shrinkToFitEPNS0_9AllocatorE
1074976244 00000073 W _ZN11ArduinoJson8V741PB226detail14MemoryPoolListINS1_15ResourceManager8SlotDataEE17allocFromLastPoolEv
1074977580 00000076 W _ZN11ArduinoJson8V741PB226detail14MemoryPoolListINS1_15ResourceManager8SlotDataEE5clearEPNS0_9AllocatorE
1074337788 00000230 W _ZN11ArduinoJson8V741PB226detail14MemoryPoolListINS1_15ResourceManager8SlotDataEE9allocSlotEPNS0_9AllocatorE
1074281416 00000142 W _ZN11ArduinoJson8V741PB226detail15ResourceManager10saveStringINS1_9RamStringEEEPNS1_10StringNodeET_
1074279668 00000253 W _ZN11ArduinoJson8V741PB226detail15ResourceManager12allocVariantEv
1074335472 00000054 W _ZN11ArduinoJson8V741PB226detail15ResourceManager12resizeStringEPNS1_10StringNodeEj
1074338116 00000045 W _ZN11ArduinoJson8V741PB226detail15ResourceManager14allocExtensionEv
1074336512 00000042 W _ZN11ArduinoJson8V741PB226detail15ResourceManager5clearEv
1074976144 00000098 W _ZN11ArduinoJson8V741PB226detail15ResourceManagerD1Ev
1074976144 00000098 W _ZN11ArduinoJson8V741PB226detail15ResourceManagerD2Ev
1074278940 00000010 W _ZN11ArduinoJson8V741PB226detail16DefaultAllocator10deallocateEPv
1074278920 00000017 W _ZN11ArduinoJson8V741PB226detail16DefaultAllocator10reallocateEPvj
1074278908 00000012 W _ZN11ArduinoJson8V741PB226detail16DefaultAllocator8allocateEj
1074342992 00000358 W _ZN11ArduinoJson8V741PB226detail16JsonDeserializerINS1_6ReaderIN2fs4FileEvEEE11parseObjectINS1_14AllowAllFilterEEENS0_20DeserializationError4CodeERNS1_10ObjectDataET_NS0_21DeserializationOption12NestingLimitE
1074341796 00000049 W _ZN11ArduinoJson8V741PB226detail16JsonDeserializerINS1_6ReaderIN2fs4FileEvEEE11skipKeywordEPKc
1074343352 00000292 W _ZN11ArduinoJson8V741PB226detail16JsonDeserializerINS1_6ReaderIN2fs4FileEvEEE12parseVariantINS1_14AllowAllFilterEEENS0_20DeserializationError4CodeERNS1_11VariantDataET_NS0_21DeserializationOption12NestingLimitE
1074978668 00000044 t _ZN11ArduinoJson8V741PB226detail16JsonDeserializerINS1_6ReaderIN2fs4FileEvEEE13canBeInNumberEc$part$188
1074341848 00000317 W _ZN11ArduinoJson8V741PB226detail16JsonDeserializerINS1_6ReaderIN2fs4FileEvEEE17parseNumericValueERNS1_11VariantDataE
1074342732 00000259 W _ZN11ArduinoJson8V741PB226detail16JsonDeserializerINS1_6ReaderIN2fs4FileEvEEE17parseQuotedStringEv
1074341728 00000066 t _ZN11ArduinoJson8V741PB226detail16JsonDeserializerINS1_6ReaderIN2fs4FileEvEEE21skipSpacesAndCommentsEv$part$255
1074977804 00000050 W _ZN11ArduinoJson8V741PB226detail16JsonDeserializerINS1_6ReaderIN2fs4FileEvEEE22canBeInNonQuotedStringEc
1074978712 00000036 t _ZN11ArduinoJson8V741PB226detail16JsonDeserializerINS1_6ReaderIN2fs4FileEvEEE22canBeInNonQuotedStringEc$part$198
1074342400 00000029 W _ZN11ArduinoJson8V741PB226detail16JsonDeserializerINS1_6ReaderIN2fs4FileEvEEE3eatEc
1074977732 00000046 W _ZN11ArduinoJson8V741PB226detail16JsonDeserializerINS1_6ReaderIN2fs4FileEvEEE7currentEv
1074404260 00000300 W _ZN11ArduinoJson8V741PB226detail16JsonDeserializerINS1_6ReaderIPcvEEE11parseObjectINS1_14AllowAllFilterEEENS0_20DeserializationError4CodeERNS1_10ObjectDataET_NS0_21DeserializationOption12NestingLimitE
1074403380 00000049 W _ZN11ArduinoJson8V741PB226detail16JsonDeserializerINS1_6ReaderIPcvEEE11skipKeywordEPKc
1074404560 00000292 W _ZN11ArduinoJson8V741PB226detail16JsonDeserializerINS1_6ReaderIPcvEEE12parseVariantINS1_14AllowAllFilterEEENS0_20DeserializationError4CodeERNS1_11VariantDataET_NS0_21DeserializationOption12NestingLimitE
1074978668 00000044 t _ZN11ArduinoJson8V741PB226detail16JsonDeserializerINS1_6ReaderIPcvEEE13canBeInNumberEc$part$192
1074403640 00000188 W _ZN11ArduinoJson8V741PB226detail16JsonDeserializerINS1_6ReaderIPcvEEE17parseNumericValueERNS1_11VariantDataE
1074403860 00000223 W _ZN11ArduinoJson8V741PB226detail16JsonDeserializerINS1_6ReaderIPcvEEE17parseQuotedStringEv
1074403312 00000066 t _ZN11ArduinoJson8V741PB226detail16JsonDeserializerINS1_6ReaderIPcvEEE21skipSpacesAndCommentsEv$part$191
1074404228 00000030 W _ZN11ArduinoJson8V741PB226detail16JsonDeserializerINS1_6ReaderIPcvEEE22canBeInNonQuotedStringEc
1074978712 00000036 t _ZN11ArduinoJson8V741PB226detail16JsonDeserializerINS1_6ReaderIPcvEEE22canBeInNonQuotedStringEc$part$202
1074403828 00000029 W _ZN11ArduinoJson8V741PB226detail16JsonDeserializerINS1_6ReaderIPcvEEE3eatEc
1074978852 00000030 W _ZN11ArduinoJson8V741PB226detail16JsonDeserializerINS1_6ReaderIPcvEEE7currentEv
1074414192 00000149 W _ZN11ArduinoJson8V741PB226detail16JsonDeserializerINS1_6ReaderIPhvEEE10parseArrayINS1_14AllowAllFilterEEENS0_20DeserializationError4CodeERNS1_9ArrayDataET_NS0_21DeserializationOption12NestingLimitE
1074413620 00000362 W _ZN11ArduinoJson8V741PB226detail16JsonDeserializerINS1_6ReaderIPhvEEE11parseObjectINS1_14AllowAllFilterEEENS0_20DeserializationError4CodeERNS1_10ObjectDataET_NS0_21DeserializationOption12NestingLimitE
1074412956 00000049 W _ZN11ArduinoJson8V741PB226detail16JsonDeserializerINS1_6ReaderIPhvEEE11skipKeywordEPKc
1074413984 00000208 W _ZN11ArduinoJson8V741PB226detail16JsonDeserializerINS1_6ReaderIPhvEEE12parseVariantINS1_14AllowAllFilterEEENS0_20DeserializationError4CodeERNS1_11VariantDataET_NS0_21DeserializationOption12NestingLimitE
1074413008 00000317 W _ZN11ArduinoJson8V741PB226detail16JsonDeserializerINS1_6ReaderIPhvEEE17parseNumericValueERNS1_11VariantDataE
1074413360 00000259 W _ZN11ArduinoJson8V741PB226detail16JsonDeserializerINS1_6ReaderIPhvEEE17parseQuotedStringEv
1074412888 00000066 t _ZN11ArduinoJson8V741PB226detail16JsonDeserializerINS1_6ReaderIPhvEEE21skipSpacesAndCommentsEv$part$63
1074978916 00000050 W _ZN11ArduinoJson8V741PB226detail16JsonDeserializerINS1_6ReaderIPhvEEE22canBeInNonQuotedStringEc
1074413328 00000029 W _ZN11ArduinoJson8V741PB226detail16JsonDeserializerINS1_6ReaderIPhvEEE3eatEc
1074978884 00000030 W _ZN11ArduinoJson8V741PB226detail16JsonDeserializerINS1_6ReaderIPhvEEE7currentEv
1074282888 00000022 W _ZN11ArduinoJson8V741PB226detail17CountingDecoratorINS1_6WriterI6StringvEEE5writeEh
1074282708 00000029 W _ZN11ArduinoJson8V741PB226detail17CountingDecoratorINS1_6WriterI6StringvEEE5writeEPKhj
1074977856 00000024 W _ZN11ArduinoJson8V741PB226detail17CountingDecoratorINS1_6WriterIN2fs4FileEvEEE5writeEh
1074977780 00000024 W _ZN11ArduinoJson8V741PB226detail17CountingDecoratorINS1_6WriterIN2fs4FileEvEEE5writeEPKhj
1074279480 00000031 W _ZN11ArduinoJson8V741PB226detail18CollectionIterator4nextEPKNS1_15ResourceManagerE
1074342588 00000142 W _ZN11ArduinoJson8V741PB226detail4Utf815encodeCodepointINS1_13StringBuilderEEEvjRT_
1074401260 00000061 W _ZN11ArduinoJson8V741PB226detail5Utf169Codepoint6appendEt
1074279140 00000032 W _ZN11ArduinoJson8V741PB226detail6WriterI6StringvE5flushEv
1074279172 00000045 W _ZN11ArduinoJson8V741PB226detail6WriterI6StringvE5writeEh
1074338020 00000050 W _ZN11ArduinoJson8V741PB226detail9ArrayData10addElementEPNS1_15ResourceManagerE
1074284308 00000306 W _ZN11ArduinoJson8V741PB226detail9serializeINS1_14JsonSerializerE6StringEEjNS0_16JsonVariantConstERT0_
1074857896 00000041 T _ZN11AsyncClient10_connectedEP7tcp_pcba
1074858064 00000146 T _ZN11AsyncClient10_dns_foundEP7ip_addr
1074856228 00000106 T _ZN11AsyncClient10_tcp_errorEPva
1074856744 00000021 T _ZN11AsyncClient11_s_lwip_finEPvP7tcp_pcba
1074857940 00000021 T _ZN11AsyncClient12_s_connectedEPvP7tcp_pcba
1074859076 00000018 T _ZN11AsyncClient12onDisconnectESt8functionIFvPvPS_EES1_
1074987108 00000008 T _ZN11AsyncClient12setRxTimeoutEj
1074856160 00000066 T _ZN11AsyncClient17_free_closed_slotEv
1074855824 00000108 T _ZN11AsyncClient21_allocate_closed_slotEv
1074855700 00000072 T _ZN11AsyncClient3addEPKcjh
1074858392 00000029 T _ZN11AsyncClient4_finEP7tcp_pcba
1074855772 00000049 T _ZN11AsyncClient4sendEv
1074858212 00000159 T _ZN11AsyncClient5_pollEP7tcp_pcb
1074856496 00000148 T _ZN11AsyncClient5_recvEP7tcp_pcbP4pbufa
1074856440 00000056 T _ZN11AsyncClient5_sentEP7tcp_pcbt
1074855664 00000033 T _ZN11AsyncClient5abortEv
1074857864 00000029 T _ZN11AsyncClient5closeEb
1074859140 00000120 T _ZN11AsyncClient5onAckESt8functionIFvPvPS_jjEES1_
1074856644 00000034 T _ZN11AsyncClient5writeEPKcjh
1074857212 00000113 T _ZN11AsyncClient6_closeEv
1074857964 00000055 T _ZN11AsyncClient6_errorEa
1074858424 00000021 T _ZN11AsyncClient6_s_finEPvP7tcp_pcba
1074859384 00000124 T _ZN11AsyncClient6onDataESt8functionIFvPvPS_S1_jEES1_
1074859096 00000021 T _ZN11AsyncClient6onPollESt8functionIFvPvPS_EES1_
1074858372 00000018 T _ZN11AsyncClient7_s_pollEPvP7tcp_pcb
1074856720 00000021 T _ZN11AsyncClient7_s_recvEPvP7tcp_pcbP4pbufa
1074856860 00000021 T _ZN11AsyncClient7_s_sentEPvP7tcp_pcbt
1074856100 00000060 T _ZN11AsyncClient7connectERK11IPv6Addresst
1074856056 00000042 T _ZN11AsyncClient7connectERK9IPAddresst
1074859260 00000124 T _ZN11AsyncClient7onErrorESt8functionIFvPvPS_aEES1_
1074855932 00000123 T _ZN11AsyncClient8_connectE7ip_addrt
1074856336 00000102 T _ZN11AsyncClient9_lwip_finEP7tcp_pcba
1074859508 00000124 T _ZN11AsyncClient9onTimeoutESt8functionIFvPvPS_jEES1_
1074857328 00000271 T _ZN11AsyncClientC1EP7tcp_pcb
1074857328 00000271 T _ZN11AsyncClientC2EP7tcp_pcb
1074857600 00000071 T _ZN11AsyncClientD1Ev
1074857600 00000071 T _ZN11AsyncClientD2Ev
1074987168 00000008 T _ZN11AsyncServer10setNoDelayEb
1074858044 00000018 T _ZN11AsyncServer11_s_acceptedEPvP11AsyncClient
1074857108 00000055 T _ZN11AsyncServer3endEv
1074856924 00000183 T _ZN11AsyncServer5beginEv
1074857672 00000166 T _ZN11AsyncServer7_acceptEP7tcp_pcba
1074859120 00000018 T _ZN11AsyncServer8onClientESt8functionIFvPvP11AsyncClientEES1_
1074858020 00000024 T _ZN11AsyncServer9_acceptedEP11AsyncClient
1074857840 00000021 T _ZN11AsyncServer9_s_acceptEPvP7tcp_pcba
1074856884 00000040 T _ZN11AsyncServerC1Et
1074856884 00000040 T _ZN11AsyncServerC2Et
1074857164 00000016 T _ZN11AsyncServerD1Ev
1074857164 00000016 T _ZN11AsyncServerD2Ev
1074431176 00000022 T _ZN11IPv6AddressC1EPKj
1074431152 00000022 T _ZN11IPv6AddressC1Ev
1074431176 00000022 T _ZN11IPv6AddressC2EPKj
1074431152 00000022 T _ZN11IPv6AddressC2Ev
1074431136 00000015 W _ZN11IPv6AddressD0Ev
1074979248 00000005 W _ZN11IPv6AddressD1Ev
1074979248 00000005 W _ZN11IPv6AddressD2Ev
1074298044 00000019 T _ZN11SHA1Builder3addEPKhj
1074297860 00000118 t _ZN11SHA1Builder3addEPKhj$part$0
1074297980 00000063 T _ZN11SHA1Builder5beginEv
1074293372 00004486 T _ZN11SHA1Builder7processEPKh
1074298340 00000018 T _ZN11SHA1Builder8getBytesEPh
1074298064 00000274 T _ZN11SHA1Builder9calculateEv
1074880992 00000090 T _ZN11UpdateClass10_verifyEndEv
1074881084 00000024 T _ZN11UpdateClass10printErrorER5Print
1074881140 00000339 T _ZN11UpdateClass12_writeBufferEv
1074880648 00000029 T _ZN11UpdateClass16_enablePartitionEPK15esp_partition_t
1074881480 00000216 T _ZN11UpdateClass3endEb
1074880796 00000195 T _ZN11UpdateClass5beginEjiihPKc
1074881696 00000141 T _ZN11UpdateClass5writeEPhj
1074880744 00000052 T _ZN11UpdateClass6_resetEv
1074880680 00000062 T _ZN11UpdateClassC1Ev
1074880680 00000062 T _ZN11UpdateClassC2Ev
1074987064 00000008 T _ZN11VFSFileImpl11isDirectoryEv
1074853848 00000012 T _ZN11VFSFileImpl12getLastWriteEv
1074854540 00000291 T _ZN11VFSFileImpl12openNextFileEPKc
1074851840 00000037 T _ZN11VFSFileImpl13setBufferSizeEj
1074852688 00000246 T _ZN11VFSFileImpl15getNextFileNameEPb
1074852464 00000222 T _ZN11VFSFileImpl15getNextFileNameEv
1074852224 00000020 T _ZN11VFSFileImpl15rewindDirectoryEv
1074852028 00000045 T _ZN11VFSFileImpl4readEPhj
1074852108 00000037 T _ZN11VFSFileImpl4seekEjN2fs8SeekModeE
1074851880 00000060 T _ZN11VFSFileImpl5closeEv
1074852076 00000030 T _ZN11VFSFileImpl5flushEv
1074851980 00000045 T _ZN11VFSFileImpl5writeEPKhj
1074852200 00000022 T _ZN11VFSFileImpl7seekDirEl
1074852936 00000234 T _ZN11VFSFileImplC1EP7VFSImplPKcS3_
1074852936 00000234 T _ZN11VFSFileImplC2EP7VFSImplPKcS3_
1074987028 00000028 T _ZN11VFSFileImplcvbEv
1074851960 00000020 T _ZN11VFSFileImplD0Ev
1074851940 00000018 T _ZN11VFSFileImplD1Ev
1074851940 00000018 T _ZN11VFSFileImplD2Ev
1074860140 00000072 T _ZN11WiFiAPClass12softAPConfigE9IPAddressS0_S0_S0_
1074860212 00000120 T _ZN11WiFiAPClass16softAPdisconnectEb
1074860332 00000038 T _ZN11WiFiAPClass19softAPgetStationNumEv
1074859868 00000270 T _ZN11WiFiAPClass6softAPEPKcS1_iiib
1073523364 00000004 b _ZN12_GLOBAL__N_113__new_handlerE
1073523372 00000016 b _ZN12_GLOBAL__N_114emergency_poolE
1074291748 00000040 t _ZN12_GLOBAL__N_116makeSharedBufferEPKhj
1074842628 00000010 t _ZN12_GLOBAL__N_122generic_error_categoryD0Ev
1074986552 00000005 t _ZN12_GLOBAL__N_122generic_error_categoryD1Ev
1074986552 00000005 t _ZN12_GLOBAL__N_122generic_error_categoryD2Ev
1073523368 00000004 b _ZN12_GLOBAL__N_12mxE
1073523388 00000004 b _ZN12_GLOBAL__N_12mxE
1074839328 00000114 t _ZN12_GLOBAL__N_14pool4freeEPv$constprop$4
1074839444 00000089 t _ZN12_GLOBAL__N_14pool8allocateEj$constprop$5
1073502844 00000004 d _ZN12_GLOBAL__N_1L25generic_category_instanceE
1074850820 00000132 T _ZN12AccelStepper11setMaxSpeedEf
1074986912 00000012 T _ZN12AccelStepper12distanceToGoEv
1074851208 00000039 T _ZN12AccelStepper12setEnablePinEh
1074850408 00000124 T _ZN12AccelStepper13enableOutputsEv
1074850096 00000090 T _ZN12AccelStepper13setOutputPinsEh
1074850360 00000047 T _ZN12AccelStepper14disableOutputsEv
1074849596 00000381 T _ZN12AccelStepper15computeNewSpeedEv
1074850532 00000154 t _ZN12AccelStepper15setAccelerationEf$part$10
1074986932 00000014 T _ZN12AccelStepper15setPinsInvertedEbbb
1074850764 00000054 T _ZN12AccelStepper3runEv
1074850688 00000014 T _ZN12AccelStepper4moveEl
1074986672 00000079 T _ZN12AccelStepper4stepEl
1074986924 00000007 T _ZN12AccelStepper5speedEv
1074850276 00000030 T _ZN12AccelStepper5step0El
1074850188 00000072 T _ZN12AccelStepper5step1El
1074986816 00000034 T _ZN12AccelStepper5step2El
1074850308 00000051 T _ZN12AccelStepper5step3El
1074986852 00000034 T _ZN12AccelStepper5step4El
1074849980 00000113 T _ZN12AccelStepper5step6El
1074986752 00000062 T _ZN12AccelStepper5step8El
1074986888 00000022 T _ZN12AccelStepper6moveToEl
1074850704 00000059 T _ZN12AccelStepper8runSpeedEv
1074851064 00000143 T _ZN12AccelStepper8setSpeedEf
1074850952 00000110 T _ZN12AccelStepperC1Ehhhhhb
1074850952 00000110 T _ZN12AccelStepperC2Ehhhhhb
1074850260 00000015 W _ZN12AccelStepperD0Ev
1074986664 00000005 W _ZN12AccelStepperD1Ev
1074986664 00000005 W _ZN12AccelStepperD2Ev
1074335056 00000112 T _ZN12LittleFSImpl6existsEPKc
1074334704 00000015 W _ZN12LittleFSImplD0Ev
1074977436 00000005 W _ZN12LittleFSImplD1Ev
1074977436 00000005 W _ZN12LittleFSImplD2Ev
1074863720 00000055 T _ZN12WiFiSTAClass10_setStatusE11wl_status_t
1074864416 00000149 T _ZN12WiFiSTAClass10disconnectEbb
1073523624 00000004 B _ZN12WiFiSTAClass11_scanMethodE
1073523620 00000004 B _ZN12WiFiSTAClass11_sortMethodE
1073502872 00000004 D _ZN12WiFiSTAClass12_minSecurityE
1073523628 00000001 B _ZN12WiFiSTAClass12_useStaticIpE
1073502876 00000001 D _ZN12WiFiSTAClass14_autoReconnectE
1073523612 00000001 B _ZN12WiFiSTAClass16_smartConfigDoneE
1074864696 00000011 T _ZN12WiFiSTAClass16getAutoReconnectEv
1074864212 00000026 T _ZN12WiFiSTAClass5beginEPcS0_iPKhb
1074864124 00000087 T _ZN12WiFiSTAClass5beginEPKcS1_iPKhb
1074863808 00000314 t _ZN12WiFiSTAClass5beginEPKcS1_iPKhb$part$2
1074864240 00000174 T _ZN12WiFiSTAClass5beginEv
1074864568 00000126 T _ZN12WiFiSTAClass6configE9IPAddressS0_S0_S0_S0_
1074863776 00000031 T _ZN12WiFiSTAClass6statusEv
1074864708 00000043 T _ZN12WiFiSTAClass7localIPEv
1073523636 00000002 B _ZN13WiFiScanClass10_scanCountE
1073523632 00000004 B _ZN13WiFiScanClass11_scanResultE
1073523640 00000004 B _ZN13WiFiScanClass12_scanStartedE
1074864752 00000071 T _ZN13WiFiScanClass9_scanDoneEv
1074978196 00000008 T _ZN14AsyncUDPPacket4dataEv
1074978108 00000026 T _ZN14AsyncUDPPacket4peekEv
1074978076 00000031 T _ZN14AsyncUDPPacket4readEv
1074978136 00000011 T _ZN14AsyncUDPPacket5flushEv
1074978148 00000024 T _ZN14AsyncUDPPacket5writeEh
1074396104 00000032 T _ZN14AsyncUDPPacket5writeEPKhj
1074978060 00000014 T _ZN14AsyncUDPPacket9availableEv
1074395420 00000268 T _ZN14AsyncUDPPacketC1EP8AsyncUDPP4pbufPK7ip_addrtP5netif
1074395308 00000112 T _ZN14AsyncUDPPacketC1ERS_
1074395420 00000268 T _ZN14AsyncUDPPacketC2EP8AsyncUDPP4pbufPK7ip_addrtP5netif
1074395308 00000112 T _ZN14AsyncUDPPacketC2ERS_
1074394952 00000022 T _ZN14AsyncUDPPacketD0Ev
1074394932 00000018 T _ZN14AsyncUDPPacketD1Ev
1074394932 00000018 T _ZN14AsyncUDPPacketD2Ev
1074318952 00000039 T _ZN14AsyncWebServer10addHandlerEP15AsyncWebHandler
1074319780 00000086 T _ZN14AsyncWebServer10onNotFoundESt8functionIFvP21AsyncWebServerRequestEE
1074319108 00000064 T _ZN14AsyncWebServer11serveStaticEPKcRN2fs2FSES1_S1_
1074319200 00000063 T _ZN14AsyncWebServer14_attachHandlerEP21AsyncWebServerRequest
1074319048 00000058 T _ZN14AsyncWebServer15_rewriteRequestEP21AsyncWebServerRequest
1074319020 00000026 T _ZN14AsyncWebServer17_handleDisconnectEP21AsyncWebServerRequest
1074320260 00000256 T _ZN14AsyncWebServer2onEPKchSt8functionIFvP21AsyncWebServerRequestEES2_IFvS4_RK6StringjPhjbEES2_IFvS4_SA_jjjEE
1074318992 00000026 T _ZN14AsyncWebServer5beginEv
1074320020 00000180 T _ZN14AsyncWebServer5resetEv
1074319492 00000212 T _ZN14AsyncWebServerC1Et
1074319492 00000212 T _ZN14AsyncWebServerC2Et
1074320200 00000060 T _ZN14AsyncWebServerD1Ev
1074320200 00000060 T _ZN14AsyncWebServerD2Ev
1074292988 00000088 T _ZN14AsyncWebSocket10_newClientEP21AsyncWebServerRequest
1074976492 00000051 T _ZN14AsyncWebSocket12_handleEventEP20AsyncWebSocketClient12AwsEventTypePvPhj
1074288104 00000686 T _ZN14AsyncWebSocket13handleRequestEP21AsyncWebServerRequest
1074291884 00000054 T _ZN14AsyncWebSocket7textAllEPKhj
1074291940 00000037 T _ZN14AsyncWebSocket7textAllERK6String
1074291344 00000092 T _ZN14AsyncWebSocket7textAllESt10shared_ptrISt6vectorIhSaIhEEE
1074279300 00000022 W _ZN14AsyncWebSocketD0Ev
1074279220 00000079 W _ZN14AsyncWebSocketD1Ev
1074279220 00000079 W _ZN14AsyncWebSocketD2Ev
1074429632 00000148 T _ZN14HardwareSerial14_uartEventTaskEPv
1074430096 00000031 T _ZN14HardwareSerial16_createEventTaskEPv
1074430128 00000022 T _ZN14HardwareSerial17_destroyEventTaskEv
1074429792 00000012 T _ZN14HardwareSerial17availableForWriteEv
1074430152 00000139 T _ZN14HardwareSerial3endEb
1074429804 00000030 T _ZN14HardwareSerial4peekEv
1074429836 00000032 T _ZN14HardwareSerial4readEv
1074430360 00000466 T _ZN14HardwareSerial5beginEmjaabmh
1074429896 00000010 T _ZN14HardwareSerial5flushEv
1074429908 00000018 T _ZN14HardwareSerial5writeEh
1074429928 00000016 T _ZN14HardwareSerial5writeEPKhj
1074429780 00000012 T _ZN14HardwareSerial9availableEv
1074979096 00000020 W _ZN14HardwareSerial9readBytesEPcj
1074429868 00000028 T _ZN14HardwareSerial9readBytesEPhj
1074429980 00000113 T _ZN14HardwareSerialC1Eh
1074429980 00000113 T _ZN14HardwareSerialC2Eh
1074430340 00000020 T _ZN14HardwareSerialD0Ev
1074430292 00000048 T _ZN14HardwareSerialD1Ev
1074430292 00000048 T _ZN14HardwareSerialD2Ev
1074979732 00000034 W _ZN14intrusive_listI14NVSHandleEntryE5eraseENS1_8iteratorE
1074979856 00000034 W _ZN14intrusive_listIN3nvs12NVSPartitionEE5eraseENS2_8iteratorE
1074979892 00000034 W _ZN14intrusive_listIN3nvs15NVSHandleSimpleEE5eraseENS2_8iteratorE
1074471524 00000022 W _ZN14intrusive_listIN3nvs4PageEE5clearEv
1074980416 00000034 W _ZN14intrusive_listIN3nvs4PageEE5eraseENS2_8iteratorE
1074980384 00000032 W _ZN14intrusive_listIN3nvs4PageEE9push_backEPS1_
1074465296 00000048 W _ZN14intrusive_listIN3nvs7Storage14NamespaceEntryEE17clearAndFreeNodesEv
1074979768 00000033 W _ZN14intrusive_listIN3nvs7Storage14NamespaceEntryEE9push_backEPS2_
1074979976 00000034 W _ZN14intrusive_listIN3nvs8HashList13HashListBlockEE5eraseENS3_8iteratorE
1073515696 00000004 B _ZN14NVSHandleEntry17s_nvs_next_handleE
1074975976 00000005 W _ZN15AsyncWebHandler10handleBodyEP21AsyncWebServerRequestPhjjj
1074975968 00000005 W _ZN15AsyncWebHandler12handleUploadEP21AsyncWebServerRequestRK6StringjPhjb
1074975960 00000005 W _ZN15AsyncWebHandler13handleRequestEP21AsyncWebServerRequest
1074278996 00000020 W _ZN15AsyncWebHandlerD0Ev
1074278968 00000027 W _ZN15AsyncWebHandlerD1Ev
1074278968 00000027 W _ZN15AsyncWebHandlerD2Ev
1074862800 00000031 W _ZN15WiFiEventCbListC1ERKS_
1074862800 00000031 W _ZN15WiFiEventCbListC2ERKS_
1074861896 00000011 T _ZN16WiFiGenericClass10persistentEb
1073523536 00000001 B _ZN16WiFiGenericClass11_long_rangeE
1073502865 00000001 D _ZN16WiFiGenericClass11_persistentE
1073523532 00000004 B _ZN16WiFiGenericClass13_sleepEnabledE
1074861840 00000026 T _ZN16WiFiGenericClass13setStatusBitsEi
1074862832 00000746 T _ZN16WiFiGenericClass14_eventCallbackEP15arduino_event_t
1074861868 00000026 T _ZN16WiFiGenericClass15clearStatusBitsEi
1074987280 00000108 T _ZN16WiFiGenericClass19calculateSubnetCIDRE9IPAddress
1073523553 00000001 B _ZN16WiFiGenericClass21_wifiUseStaticBuffersE
1074987184 00000095 T _ZN16WiFiGenericClass22_isReconnectableReasonEh
1074861944 00000238 T _ZN16WiFiGenericClass4modeE11wifi_mode_t
1074861908 00000035 T _ZN16WiFiGenericClass7getModeEv
1074862224 00000042 T _ZN16WiFiGenericClass8enableAPEb
1074862184 00000040 T _ZN16WiFiGenericClass9enableSTAEb
1074987176 00000005 T _ZN16WiFiGenericClassC1Ev
1074987176 00000005 T _ZN16WiFiGenericClassC2Ev
1074866452 00000087 T _ZN17Adafruit_NeoPixel10updateTypeEt
1074866372 00000078 T _ZN17Adafruit_NeoPixel12updateLengthEt
1074987556 00000138 T _ZN17Adafruit_NeoPixel13setPixelColorEtj
1074866760 00000047 T _ZN17Adafruit_NeoPixel4fillEjtt
1074866540 00000058 T _ZN17Adafruit_NeoPixel4showEv
1074866808 00000018 T _ZN17Adafruit_NeoPixel5clearEv
1074866656 00000054 T _ZN17Adafruit_NeoPixel6setPinEs
1074866712 00000048 T _ZN17Adafruit_NeoPixelC1Etst
1074866712 00000048 T _ZN17Adafruit_NeoPixelC2Etst
1074866600 00000055 T _ZN17Adafruit_NeoPixelD1Ev
1074866600 00000055 T _ZN17Adafruit_NeoPixelD2Ev
1074312064 00000020 T _ZN17AsyncFileResponse11_fillBufferEPhj
1074312984 00000272 T _ZN17AsyncFileResponse23_setContentTypeFromPathERK6String
1074315888 00000539 T _ZN17AsyncFileResponseC1EN2fs4FileERK6StringPKcbSt8functionIFS2_S4_EE
1074315272 00000615 T _ZN17AsyncFileResponseC1ERN2fs2FSERK6StringPKcbSt8functionIFS3_S5_EE
1074315888 00000539 T _ZN17AsyncFileResponseC2EN2fs4FileERK6StringPKcbSt8functionIFS2_S4_EE
1074315272 00000615 T _ZN17AsyncFileResponseC2ERN2fs2FSERK6StringPKcbSt8functionIFS3_S5_EE
1074314784 00000022 W _ZN17AsyncFileResponseD0Ev
1074314736 00000047 W _ZN17AsyncFileResponseD1Ev
1074314736 00000047 W _ZN17AsyncFileResponseD2Ev
1074302084 00000064 W _ZN17AsyncWebParameterC1ERK6StringS2_bbj
1074302084 00000064 W _ZN17AsyncWebParameterC2ERK6StringS2_bbj
1074312212 00000266 T _ZN18AsyncBasicResponse4_ackEP21AsyncWebServerRequestjj
1074313972 00000600 T _ZN18AsyncBasicResponse8_respondEP21AsyncWebServerRequest
1074316428 00000146 T _ZN18AsyncBasicResponseC1EiPKcS1_
1074316428 00000146 T _ZN18AsyncBasicResponseC2EiPKcS1_
1074314608 00000020 W _ZN18AsyncBasicResponseD0Ev
1074314584 00000023 W _ZN18AsyncBasicResponseD1Ev
1074314584 00000023 W _ZN18AsyncBasicResponseD2Ev
1074298772 00000362 T _ZN20AsyncMiddlewareChain9_runChainEP21AsyncWebServerRequestSt8functionIFvvEE
1074298360 00000048 T _ZN20AsyncMiddlewareChainD1Ev
1074298360 00000048 T _ZN20AsyncMiddlewareChainD2Ev
1074311984 00000063 T _ZN20AsyncProgmemResponse11_fillBufferEPhj
1074315148 00000123 T _ZN20AsyncProgmemResponseC1EiPKcPKhjSt8functionIF6StringRKS5_EE
1074315148 00000123 T _ZN20AsyncProgmemResponseC2EiPKcPKhjSt8functionIF6StringRKS5_EE
1074314712 00000022 W _ZN20AsyncProgmemResponseD0Ev
1074314692 00000018 W _ZN20AsyncProgmemResponseD1Ev
1074314692 00000018 W _ZN20AsyncProgmemResponseD2Ev
1074287380 00000018 T _ZN20AsyncWebSocketClient10_onTimeoutEj
1074289512 00000102 T _ZN20AsyncWebSocketClient11_clearQueueEv
1074289776 00000362 T _ZN20AsyncWebSocketClient13_queueControlEhPKhjb
1074291116 00000170 T _ZN20AsyncWebSocketClient13_queueMessageESt10shared_ptrISt6vectorIhSaIhEEEhb
1074290140 00000030 T _ZN20AsyncWebSocketClient4pingEPKhj
1074291788 00000054 T _ZN20AsyncWebSocketClient4textEPKhj
1074291844 00000037 T _ZN20AsyncWebSocketClient4textERK6String
1074291288 00000056 T _ZN20AsyncWebSocketClient4textESt10shared_ptrISt6vectorIhSaIhEEE
1074291436 00000176 T _ZN20AsyncWebSocketClient6_onAckEjj
1074290172 00000742 T _ZN20AsyncWebSocketClient7_onDataEPvj
1074290932 00000172 T _ZN20AsyncWebSocketClient7_onPollEv
1074289616 00000159 T _ZN20AsyncWebSocketClient9_runQueueEv
1074292276 00000710 T _ZN20AsyncWebSocketClientC1EP21AsyncWebServerRequestP14AsyncWebSocket
1074292276 00000710 T _ZN20AsyncWebSocketClientC2EP21AsyncWebServerRequestP14AsyncWebSocket
1074293096 00000274 T _ZN20AsyncWebSocketClientD1Ev
1074293096 00000274 T _ZN20AsyncWebSocketClientD2Ev
1074977052 00000007 W _ZN21AsyncAbstractResponse11_fillBufferEPhj
1074316664 00000080 T _ZN21AsyncAbstractResponse27_readDataFromCacheOrContentEPhj
1074317228 00000786 T _ZN21AsyncAbstractResponse30_fillBufferAndProcessTemplatesEPhj
1074318016 00000747 T _ZN21AsyncAbstractResponse4_ackEP21AsyncWebServerRequestjj
1074318764 00000046 T _ZN21AsyncAbstractResponse8_respondEP21AsyncWebServerRequest
1074315032 00000116 T _ZN21AsyncAbstractResponseC1ESt8functionIF6StringRKS1_EE
1074315032 00000116 T _ZN21AsyncAbstractResponseC2ESt8functionIF6StringRKS1_EE
1074314668 00000022 W _ZN21AsyncAbstractResponseD0Ev
1074314628 00000038 W _ZN21AsyncAbstractResponseD1Ev
1074314628 00000038 W _ZN21AsyncAbstractResponseD2Ev
1074322936 00000564 T _ZN21AsyncStaticWebHandler11_searchFileEP21AsyncWebServerRequestRK6String
1074322196 00000738 T _ZN21AsyncStaticWebHandler13handleRequestEP21AsyncWebServerRequest
1074321124 00000013 T _ZN21AsyncStaticWebHandler14setDefaultFileEPKc
1074321200 00000024 T _ZN21AsyncStaticWebHandler15setLastModifiedEl
1074321140 00000058 T _ZN21AsyncStaticWebHandler15setLastModifiedEP2tm
1074321352 00000690 T _ZN21AsyncStaticWebHandlerC1EPKcRN2fs2FSES1_S1_
1074321352 00000690 T _ZN21AsyncStaticWebHandlerC2EPKcRN2fs2FSES1_S1_
1074321328 00000022 W _ZN21AsyncStaticWebHandlerD0Ev
1074321264 00000062 W _ZN21AsyncStaticWebHandlerD1Ev
1074321264 00000062 W _ZN21AsyncStaticWebHandlerD2Ev
1074302292 00000015 T _ZN21AsyncWebServerRequest10_onTimeoutEj
1074306688 00000383 T _ZN21AsyncWebServerRequest10_parseLineEv
1074305784 00000351 T _ZN21AsyncWebServerRequest13_addGetParamsERK6String
1074302324 00000028 T _ZN21AsyncWebServerRequest13_onDisconnectEv
1074306136 00000550 T _ZN21AsyncWebServerRequest13_parseReqHeadEv
1074304480 00000174 T _ZN21AsyncWebServerRequest13beginResponseEiPKcS1_St8functionIF6StringRKS3_EE
1074304272 00000206 T _ZN21AsyncWebServerRequest13beginResponseERN2fs2FSERK6StringPKcbSt8functionIFS3_S5_EE
1074302388 00001199 T _ZN21AsyncWebServerRequest15_parseReqHeaderEv
1074976864 00000076 T _ZN21AsyncWebServerRequest17_handleUploadByteEhb
1074307072 00000458 T _ZN21AsyncWebServerRequest19_parsePlainPostCharEh
1074304772 00000478 T _ZN21AsyncWebServerRequest21requestAuthenticationE13AsyncAuthTypePKcS2_
1074307532 00002608 T _ZN21AsyncWebServerRequest23_parseMultipartPostByteEhb
1074286276 00000122 W _ZN21AsyncWebServerRequest4sendEiPKcS1_St8functionIF6StringRKS3_EE
1074976948 00000024 T _ZN21AsyncWebServerRequest4sendEP22AsyncWebServerResponse
1074417244 00000222 W _ZN21AsyncWebServerRequest4sendERN2fs2FSERK6StringPKcbSt8functionIFS3_S5_EE
1074417468 00000102 W _ZN21AsyncWebServerRequest4sendERN2fs2FSERK6StringS5_bSt8functionIFS3_S5_EE
1074302216 00000059 T _ZN21AsyncWebServerRequest6_onAckEjj
1074301928 00000032 t _ZN21AsyncWebServerRequest6_onAckEjj$part$64
1074310140 00000732 T _ZN21AsyncWebServerRequest7_onDataEPvj
1074302148 00000056 T _ZN21AsyncWebServerRequest7_onPollEv
1074301928 00000032 t _ZN21AsyncWebServerRequest7_onPollEv$part$62
1074304656 00000114 T _ZN21AsyncWebServerRequest8redirectEPKci
1074310908 00000810 T _ZN21AsyncWebServerRequestC1EP14AsyncWebServerP11AsyncClient
1074310908 00000810 T _ZN21AsyncWebServerRequestC2EP14AsyncWebServerP11AsyncClient
1074311720 00000221 T _ZN21AsyncWebServerRequestD1Ev
1074311720 00000221 T _ZN21AsyncWebServerRequestD2Ev
1074287048 00000077 W _ZN21AsyncWebSocketControlC1EhPKhjb
1074287048 00000077 W _ZN21AsyncWebSocketControlC2EhPKhjb
1074287128 00000015 W _ZN21AsyncWebSocketControlD1Ev
1074287128 00000015 W _ZN21AsyncWebSocketControlD2Ev
1074976456 00000034 T _ZN21AsyncWebSocketMessage3ackEjj
1074287192 00000187 T _ZN21AsyncWebSocketMessage4sendEP11AsyncClient
1074287144 00000047 T _ZN21AsyncWebSocketMessageC1ESt10shared_ptrISt6vectorIhSaIhEEEhb
1074287144 00000047 T _ZN21AsyncWebSocketMessageC2ESt10shared_ptrISt6vectorIhSaIhEEEhb
1074313516 00000455 T _ZN22AsyncWebServerResponse13_assembleHeadER6Stringh
1074312528 00000454 T _ZN22AsyncWebServerResponse20responseCodeToStringEi
1074977132 00000007 T _ZN22AsyncWebServerResponse4_ackEP21AsyncWebServerRequestjj
1074311964 00000019 T _ZN22AsyncWebServerResponse8_respondEP21AsyncWebServerRequest
1074313304 00000210 T _ZN22AsyncWebServerResponse9addHeaderEPKcS1_b
1074286516 00000038 W _ZN22AsyncWebServerResponse9addHeaderERK6StringS2_b
1074314808 00000224 T _ZN22AsyncWebServerResponseC1Ev
1074314808 00000224 T _ZN22AsyncWebServerResponseC2Ev
1074286496 00000020 W _ZN22AsyncWebServerResponseD0Ev
1074286400 00000052 W _ZN22AsyncWebServerResponseD1Ev
1074286400 00000052 W _ZN22AsyncWebServerResponseD2Ev
1074293076 00000017 T _ZN22AsyncWebSocketResponse4_ackEP21AsyncWebServerRequestjj
1074285952 00000134 T _ZN22AsyncWebSocketResponse8_respondEP21AsyncWebServerRequest
1074287416 00000686 T _ZN22AsyncWebSocketResponseC1ERK6StringP14AsyncWebSocket
1074287416 00000686 T _ZN22AsyncWebSocketResponseC2ERK6StringP14AsyncWebSocket
1074286476 00000020 W _ZN22AsyncWebSocketResponseD0Ev
1074286452 00000023 W _ZN22AsyncWebSocketResponseD1Ev
1074286452 00000023 W _ZN22AsyncWebSocketResponseD2Ev
1074977296 00000043 T _ZN23AsyncCallbackWebHandler10handleBodyEP21AsyncWebServerRequestPhjjj
1074977244 00000052 T _ZN23AsyncCallbackWebHandler12handleUploadEP21AsyncWebServerRequestRK6StringjPhjb
1074322092 00000103 T _ZN23AsyncCallbackWebHandler13handleRequestEP21AsyncWebServerRequest
1074321224 00000037 T _ZN23AsyncCallbackWebHandler6setUriERK6String
1074318880 00000072 W _ZN23AsyncCallbackWebHandlerC1Ev
1074318880 00000072 W _ZN23AsyncCallbackWebHandlerC2Ev
1074321056 00000022 W _ZN23AsyncCallbackWebHandlerD0Ev
1074321004 00000050 W _ZN23AsyncCallbackWebHandlerD1Ev
1074321004 00000050 W _ZN23AsyncCallbackWebHandlerD2Ev
1074334800 00000100 T _ZN2fs10LittleFSFS5beginEbPKchS2_
1074334772 00000028 T _ZN2fs10LittleFSFS6formatEv
1074334924 00000129 T _ZN2fs10LittleFSFSC1Ev
1074334924 00000129 T _ZN2fs10LittleFSFSC2Ev
1074334900 00000023 T _ZN2fs10LittleFSFSD1Ev
1074334900 00000023 T _ZN2fs10LittleFSFSD2Ev
1073495760 00000004 D _ZN2fs12FileOpenMode4readE
1074851684 00000051 T _ZN2fs2FS4openEPKcS2_b
1074851736 00000030 T _ZN2fs2FS4openERK6StringPKcb
1074986972 00000022 T _ZN2fs2FS6existsEPKc
1074851660 00000022 T _ZN2fs2FS6existsERK6String
1074986996 00000022 T _ZN2fs2FS6removeEPKc
1074851636 00000024 T _ZN2fs4File11isDirectoryEv
1074851288 00000028 T _ZN2fs4File12getLastWriteEv
1074851528 00000050 T _ZN2fs4File4peekEv
1074851428 00000032 T _ZN2fs4File4readEPhj
1074851388 00000037 T _ZN2fs4File4readEv
1074851500 00000028 T _ZN2fs4File4seekEjNS_8SeekModeE
1074851768 00000050 T _ZN2fs4File5closeEv
1074851476 00000022 T _ZN2fs4File5flushEv
1074851248 00000038 T _ZN2fs4File5writeEh
1074851316 00000032 T _ZN2fs4File5writeEPKhj
1074851348 00000040 T _ZN2fs4File9availableEv
1074851460 00000016 W _ZN2fs4File9readBytesEPcj
1074322044 00000047 W _ZN2fs4FileaSEOS0_
1074321080 00000042 W _ZN2fs4FileC1ERKS0_
1074312480 00000046 W _ZN2fs4FileC1ESt10shared_ptrINS_8FileImplEE
1074321080 00000042 W _ZN2fs4FileC2ERKS0_
1074312480 00000046 W _ZN2fs4FileC2ESt10shared_ptrINS_8FileImplEE
1074311944 00000020 W _ZN2fs4FileD0Ev
1074310888 00000020 W _ZN2fs4FileD1Ev
1074310888 00000020 W _ZN2fs4FileD2Ev
1074987020 00000007 T _ZN2fs6FSImpl10mountpointEPKc
1074377196 00000123 T _ZN3JCA3FNC10DigitalOut12AddToHandlerERNS_3IOT11FuncHandlerE
1073495984 00000004 D _ZN3JCA3FNC10DigitalOut12SetupTagTypeE
1073495980 00000004 D _ZN3JCA3FNC10DigitalOut17SetupTagOutputPinE
1074378144 00000626 T _ZN3JCA3FNC10DigitalOut6CreateEN11ArduinoJson8V741PB2210JsonObjectES4_RSt6vectorIPNS0_10FuncParentESaIS7_EESt3mapI6StringPvSt4lessISC_ESaISt4pairIKSC_SD_EEE
1074376992 00000202 T _ZN3JCA3FNC10DigitalOut6updateER2tm
1073495988 00000004 D _ZN3JCA3FNC10DigitalOut9ClassNameE
1074377320 00000822 T _ZN3JCA3FNC10DigitalOutC1Eh6String
1074377320 00000822 T _ZN3JCA3FNC10DigitalOutC2Eh6String
1074376972 00000020 W _ZN3JCA3FNC10DigitalOutD0Ev
1074376952 00000018 W _ZN3JCA3FNC10DigitalOutD1Ev
1074376952 00000018 W _ZN3JCA3FNC10DigitalOutD2Ev
1074328988 00000052 T _ZN3JCA3FNC10FuncParent11getTagIndexE6String
1073495776 00000004 D _ZN3JCA3FNC10FuncParent11JsonTagDataE
1073495780 00000004 D _ZN3JCA3FNC10FuncParent13JsonTagConfigE
1074334348 00000356 T _ZN3JCA3FNC10FuncParent13writeFunctionEN2fs4FileERb
1073495764 00000004 D _ZN3JCA3FNC10FuncParent14DebugSeparatorE
1073495772 00000004 D _ZN3JCA3FNC10FuncParent14JsonTagCommentE
1073495784 00000004 D _ZN3JCA3FNC10FuncParent15JsonTagElementsE
1074328300 00000554 T _ZN3JCA3FNC10FuncParent17writeFunctionTagsEN2fs4FileENS_3TAG10TagUsage_TE
1074331976 00000475 T _ZN3JCA3FNC10FuncParent18GetSetupValueUINT8EPKcRbN11ArduinoJson8V741PB2210JsonObjectES7_
1074977348 00000040 T _ZN3JCA3FNC10FuncParent18getTagValueByIndexEsN11ArduinoJson8V741PB2211JsonVariantE
1074977388 00000048 T _ZN3JCA3FNC10FuncParent18setTagValueByIndexEsN11ArduinoJson8V741PB2211JsonVariantE
1074333548 00000798 T _ZN3JCA3FNC10FuncParent19GetSetupHardwareRefEPKcR6StringRbN11ArduinoJson8V741PB2210JsonObjectES9_St3mapIS4_PvSt4lessIS4_ESaISt4pairIKS4_SB_EEE
1074333092 00000455 T _ZN3JCA3FNC10FuncParent19GetSetupValueStringEPKcRbN11ArduinoJson8V741PB2210JsonObjectES7_
1074332452 00000475 T _ZN3JCA3FNC10FuncParent19GetSetupValueUINT16EPKcRbN11ArduinoJson8V741PB2210JsonObjectES7_
1074331228 00000747 T _ZN3JCA3FNC10FuncParent21GetSetupValueUINT8ArrEPKcRPhRbN11ArduinoJson8V741PB2210JsonObjectES9_
1074977340 00000005 W _ZN3JCA3FNC10FuncParent6updateER2tm
1074328284 00000015 T _ZN3JCA3FNC10FuncParent7getNameEv
1074328856 00000131 T _ZN3JCA3FNC10FuncParent9addValuesERN11ArduinoJson8V741PB2210JsonObjectE
1073495768 00000004 D _ZN3JCA3FNC10FuncParent9ClassNameE
1074329076 00000259 T _ZN3JCA3FNC10FuncParent9setValuesERN11ArduinoJson8V741PB2210JsonObjectE
1074328164 00000119 T _ZN3JCA3FNC10FuncParentC1E6String
1074328052 00000110 T _ZN3JCA3FNC10FuncParentC1E6StringS2_
1074328164 00000119 T _ZN3JCA3FNC10FuncParentC2E6String
1074328052 00000110 T _ZN3JCA3FNC10FuncParentC2E6StringS2_
1074327356 00000020 T _ZN3JCA3FNC10FuncParentD0Ev
1074327292 00000064 T _ZN3JCA3FNC10FuncParentD1Ev
1074327292 00000064 T _ZN3JCA3FNC10FuncParentD2Ev
1074423864 00000123 T _ZN3JCA3FNC10ServerLink12AddToHandlerERNS_3IOT11FuncHandlerE
1073496080 00000004 D _ZN3JCA3FNC10ServerLink12SetupTagTypeE
1074423456 00000242 T _ZN3JCA3FNC10ServerLink15getServerDataCBEv
1074423312 00000084 T _ZN3JCA3FNC10ServerLink15setServerDataCBEv
1073496076 00000004 D _ZN3JCA3FNC10ServerLink15SetupTagRefNameE
1074423296 00000015 T _ZN3JCA3FNC10ServerLink19writeServerConfigCBEv
1074426724 00000650 T _ZN3JCA3FNC10ServerLink6CreateEN11ArduinoJson8V741PB2210JsonObjectES4_RSt6vectorIPNS0_10FuncParentESaIS7_EESt3mapI6StringPvSt4lessISC_ESaISt4pairIKSC_SD_EEE
1074423700 00000102 T _ZN3JCA3FNC10ServerLink6updateER2tm
1073496084 00000004 D _ZN3JCA3FNC10ServerLink9ClassNameE
1074423272 00000023 T _ZN3JCA3FNC10ServerLink9setTimeCBEv
1074423988 00002734 T _ZN3JCA3FNC10ServerLinkC1EPNS_3IOT6ServerE6String
1074423988 00002734 T _ZN3JCA3FNC10ServerLinkC2EPNS_3IOT6ServerE6String
1074423252 00000018 W _ZN3JCA3FNC10ServerLinkD0Ev
1074423216 00000034 W _ZN3JCA3FNC10ServerLinkD1Ev
1074423216 00000034 W _ZN3JCA3FNC10ServerLinkD2Ev
1074371476 00001318 T _ZN3JCA3FNC11ClockValues10updateTagsEv
1074371296 00000123 T _ZN3JCA3FNC11ClockValues12AddToHandlerERNS_3IOT11FuncHandlerE
1073495952 00000004 D _ZN3JCA3FNC11ClockValues12SetupTagTypeE
1073495948 00000004 D _ZN3JCA3FNC11ClockValues24SetupTagCountClockPointsE
1074373420 00000626 T _ZN3JCA3FNC11ClockValues6CreateEN11ArduinoJson8V741PB2210JsonObjectES4_RSt6vectorIPNS0_10FuncParentESaIS7_EESt3mapI6StringPvSt4lessISC_ESaISt4pairIKSC_SD_EEE
1074370964 00000271 T _ZN3JCA3FNC11ClockValues6updateER2tm
1073495956 00000004 D _ZN3JCA3FNC11ClockValues9ClassNameE
1074372796 00000623 T _ZN3JCA3FNC11ClockValuesC1Eh6String
1074372796 00000623 T _ZN3JCA3FNC11ClockValuesC2Eh6String
1074371276 00000020 W _ZN3JCA3FNC11ClockValuesD0Ev
1074371252 00000022 W _ZN3JCA3FNC11ClockValuesD1Ev
1074371252 00000022 W _ZN3JCA3FNC11ClockValuesD2Ev
1074427512 00000123 T _ZN3JCA3FNC11ValueAnalog12AddToHandlerERNS_3IOT11FuncHandlerE
1073496092 00000004 D _ZN3JCA3FNC11ValueAnalog12SetupTagTypeE
1073496088 00000004 D _ZN3JCA3FNC11ValueAnalog12SetupTagUnitE
1074428004 00000458 T _ZN3JCA3FNC11ValueAnalog6CreateEN11ArduinoJson8V741PB2210JsonObjectES4_RSt6vectorIPNS0_10FuncParentESaIS7_EESt3mapI6StringPvSt4lessISC_ESaISt4pairIKSC_SD_EEE
1074427376 00000094 T _ZN3JCA3FNC11ValueAnalog6updateER2tm
1073496096 00000004 D _ZN3JCA3FNC11ValueAnalog9ClassNameE
1074427636 00000367 T _ZN3JCA3FNC11ValueAnalogC1E6StringS2_
1074427636 00000367 T _ZN3JCA3FNC11ValueAnalogC2E6StringS2_
1074427492 00000020 W _ZN3JCA3FNC11ValueAnalogD0Ev
1074427472 00000018 W _ZN3JCA3FNC11ValueAnalogD1Ev
1074427472 00000018 W _ZN3JCA3FNC11ValueAnalogD2Ev
1074428600 00000123 T _ZN3JCA3FNC12ValueDigital12AddToHandlerERNS_3IOT11FuncHandlerE
1073496100 00000004 D _ZN3JCA3FNC12ValueDigital12SetupTagTypeE
1074429128 00000366 T _ZN3JCA3FNC12ValueDigital6CreateEN11ArduinoJson8V741PB2210JsonObjectES4_RSt6vectorIPNS0_10FuncParentESaIS7_EESt3mapI6StringPvSt4lessISC_ESaISt4pairIKSC_SD_EEE
1074428464 00000094 T _ZN3JCA3FNC12ValueDigital6updateER2tm
1073496104 00000004 D _ZN3JCA3FNC12ValueDigital9ClassNameE
1074428724 00000403 T _ZN3JCA3FNC12ValueDigitalC1E6String
1074428724 00000403 T _ZN3JCA3FNC12ValueDigitalC2E6String
1074428580 00000020 W _ZN3JCA3FNC12ValueDigitalD0Ev
1074428560 00000018 W _ZN3JCA3FNC12ValueDigitalD1Ev
1074428560 00000018 W _ZN3JCA3FNC12ValueDigitalD2Ev
1074391520 00000123 T _ZN3JCA3FNC13PIDController12AddToHandlerERNS_3IOT11FuncHandlerE
1073496068 00000004 D _ZN3JCA3FNC13PIDController12SetupTagTypeE
1073496060 00000004 D _ZN3JCA3FNC13PIDController18SetupTagOutputUnitE
1073496064 00000004 D _ZN3JCA3FNC13PIDController19SetupTagProcessUnitE
1074394212 00000720 T _ZN3JCA3FNC13PIDController6CreateEN11ArduinoJson8V741PB2210JsonObjectES4_RSt6vectorIPNS0_10FuncParentESaIS7_EESt3mapI6StringPvSt4lessISC_ESaISt4pairIKSC_SD_EEE
1074390628 00000892 T _ZN3JCA3FNC13PIDController6updateER2tm
1073496072 00000004 D _ZN3JCA3FNC13PIDController9ClassNameE
1074391644 00002566 T _ZN3JCA3FNC13PIDControllerC1E6StringS2_S2_
1074391644 00002566 T _ZN3JCA3FNC13PIDControllerC2E6StringS2_S2_
1074390604 00000022 W _ZN3JCA3FNC13PIDControllerD0Ev
1074390584 00000018 W _ZN3JCA3FNC13PIDControllerD1Ev
1074390584 00000018 W _ZN3JCA3FNC13PIDControllerD2Ev
1074375776 00000123 T _ZN3JCA3FNC14DigitalCounter12AddToHandlerERNS_3IOT11FuncHandlerE
1073495972 00000004 D _ZN3JCA3FNC14DigitalCounter12SetupTagTypeE
1073921044 00000022 T _ZN3JCA3FNC14DigitalCounter15handleInterruptEPv
1073495968 00000004 D _ZN3JCA3FNC14DigitalCounter16SetupTagInputPinE
1074376324 00000626 T _ZN3JCA3FNC14DigitalCounter6CreateEN11ArduinoJson8V741PB2210JsonObjectES4_RSt6vectorIPNS0_10FuncParentESaIS7_EESt3mapI6StringPvSt4lessISC_ESaISt4pairIKSC_SD_EEE
1074375640 00000094 T _ZN3JCA3FNC14DigitalCounter6updateER2tm
1073495976 00000004 D _ZN3JCA3FNC14DigitalCounter9ClassNameE
1074375900 00000423 T _ZN3JCA3FNC14DigitalCounterC1Eh6String
1074375900 00000423 T _ZN3JCA3FNC14DigitalCounterC2Eh6String
1074375756 00000020 W _ZN3JCA3FNC14DigitalCounterD0Ev
1074375736 00000018 W _ZN3JCA3FNC14DigitalCounterD1Ev
1074375736 00000018 W _ZN3JCA3FNC14DigitalCounterD2Ev
1074388420 00000123 T _ZN3JCA3FNC5Level12AddToHandlerERNS_3IOT11FuncHandlerE
1073496052 00000004 D _ZN3JCA3FNC5Level12SetupTagTypeE
1073496048 00000004 D _ZN3JCA3FNC5Level16SetupTagInputPinE
1074389956 00000626 T _ZN3JCA3FNC5Level6CreateEN11ArduinoJson8V741PB2210JsonObjectES4_RSt6vectorIPNS0_10FuncParentESaIS7_EESt3mapI6StringPvSt4lessISC_ESaISt4pairIKSC_SD_EEE
1074388088 00000331 T _ZN3JCA3FNC5Level6updateER2tm
1073496056 00000004 D _ZN3JCA3FNC5Level9ClassNameE
1074388544 00001412 T _ZN3JCA3FNC5LevelC1Eh6String
1074388544 00001412 T _ZN3JCA3FNC5LevelC2Eh6String
1074388068 00000020 W _ZN3JCA3FNC5LevelD0Ev
1074388048 00000018 W _ZN3JCA3FNC5LevelD1Ev
1074388048 00000018 W _ZN3JCA3FNC5LevelD2Ev
1074381500 00000123 T _ZN3JCA3FNC6Feeder12AddToHandlerERNS_3IOT11FuncHandlerE
1073496016 00000004 D _ZN3JCA3FNC6Feeder12SetupTagTypeE
1073496004 00000004 D _ZN3JCA3FNC6Feeder14SetupTagDirPinE
1073496008 00000004 D _ZN3JCA3FNC6Feeder15SetupTagStepPinE
1073496012 00000004 D _ZN3JCA3FNC6Feeder17SetupTagEnablePinE
1074384184 00000772 T _ZN3JCA3FNC6Feeder6CreateEN11ArduinoJson8V741PB2210JsonObjectES4_RSt6vectorIPNS0_10FuncParentESaIS7_EESt3mapI6StringPvSt4lessISC_ESaISt4pairIKSC_SD_EEE
1074381040 00000400 T _ZN3JCA3FNC6Feeder6updateER2tm
1074977960 00000015 T _ZN3JCA3FNC6Feeder8doFeedCBEv
1073496020 00000004 D _ZN3JCA3FNC6Feeder9ClassNameE
1074381624 00002559 T _ZN3JCA3FNC6FeederC1Ehhh6String
1074381624 00002559 T _ZN3JCA3FNC6FeederC2Ehhh6String
1074381016 00000022 W _ZN3JCA3FNC6FeederD0Ev
1074380996 00000018 W _ZN3JCA3FNC6FeederD1Ev
1074380996 00000018 W _ZN3JCA3FNC6FeederD2Ev
1074359344 00001018 T _ZN3JCA3FNC6INA21910createTagsEv
1074359204 00000123 T _ZN3JCA3FNC6INA21912AddToHandlerERNS_3IOT11FuncHandlerE
1073495916 00000004 D _ZN3JCA3FNC6INA21912SetupTagAddrE
1073495920 00000004 D _ZN3JCA3FNC6INA21912SetupTagTypeE
1073495912 00000004 D _ZN3JCA3FNC6INA21915SetupTagRefNameE
1074360540 00000784 T _ZN3JCA3FNC6INA2196CreateEN11ArduinoJson8V741PB2210JsonObjectES4_RSt6vectorIPNS0_10FuncParentESaIS7_EESt3mapI6StringPvSt4lessISC_ESaISt4pairIKSC_SD_EEE
1074358016 00001185 T _ZN3JCA3FNC6INA2196updateER2tm
1073495924 00000004 D _ZN3JCA3FNC6INA2199ClassNameE
1074360364 00000174 T _ZN3JCA3FNC6INA219C1EP7TwoWireh6String
1074360364 00000174 T _ZN3JCA3FNC6INA219C2EP7TwoWireh6String
1074357992 00000022 W _ZN3JCA3FNC6INA219D0Ev
1074357972 00000018 W _ZN3JCA3FNC6INA219D1Ev
1074357972 00000018 W _ZN3JCA3FNC6INA219D2Ev
1074364464 00000123 T _ZN3JCA3FNC7Charger12AddToHandlerERNS_3IOT11FuncHandlerE
1073495940 00000004 D _ZN3JCA3FNC7Charger12SetupTagTypeE
1073495928 00000004 D _ZN3JCA3FNC7Charger15SetupTagRefNameE
1073495936 00000004 D _ZN3JCA3FNC7Charger17SetupTagChargePinE
1073495932 00000004 D _ZN3JCA3FNC7Charger20SetupTagDischargePinE
1074370076 00000886 T _ZN3JCA3FNC7Charger6CreateEN11ArduinoJson8V741PB2210JsonObjectES4_RSt6vectorIPNS0_10FuncParentESaIS7_EESt3mapI6StringPvSt4lessISC_ESaISt4pairIKSC_SD_EEE
1074361368 00002892 T _ZN3JCA3FNC7Charger6updateER2tm
1073495944 00000004 D _ZN3JCA3FNC7Charger9ClassNameE
1074364588 00005486 T _ZN3JCA3FNC7ChargerC1Ehh6StringPNS_3SYS9PwmOutputE
1074364588 00005486 T _ZN3JCA3FNC7ChargerC2Ehh6StringPNS_3SYS9PwmOutputE
1074361344 00000022 W _ZN3JCA3FNC7ChargerD0Ev
1074361324 00000018 W _ZN3JCA3FNC7ChargerD1Ev
1074361324 00000018 W _ZN3JCA3FNC7ChargerD2Ev
1074379360 00000123 T _ZN3JCA3FNC7DS18B2012AddToHandlerERNS_3IOT11FuncHandlerE
1073495996 00000004 D _ZN3JCA3FNC7DS18B2012SetupTagTypeE
1073495992 00000004 D _ZN3JCA3FNC7DS18B2015SetupTagRefNameE
1074380340 00000654 T _ZN3JCA3FNC7DS18B206CreateEN11ArduinoJson8V741PB2210JsonObjectES4_RSt6vectorIPNS0_10FuncParentESaIS7_EESt3mapI6StringPvSt4lessISC_ESaISt4pairIKSC_SD_EEE
1074378816 00000542 T _ZN3JCA3FNC7DS18B206updateER2tm
1073496000 00000004 D _ZN3JCA3FNC7DS18B209ClassNameE
1074379484 00000855 T _ZN3JCA3FNC7DS18B20C1EP7OneWire6String
1074379484 00000855 T _ZN3JCA3FNC7DS18B20C2EP7OneWire6String
1074378792 00000022 W _ZN3JCA3FNC7DS18B20D0Ev
1074378772 00000018 W _ZN3JCA3FNC7DS18B20D1Ev
1074378772 00000018 W _ZN3JCA3FNC7DS18B20D2Ev
1074385436 00000123 T _ZN3JCA3FNC8LedStrip12AddToHandlerERNS_3IOT11FuncHandlerE
1073496040 00000004 D _ZN3JCA3FNC8LedStrip12SetupTagTypeE
1074385004 00000047 T _ZN3JCA3FNC8LedStrip13updateColorCBEv
1073496032 00000004 D _ZN3JCA3FNC8LedStrip15SetupTagNumLedsE
1073496036 00000004 D _ZN3JCA3FNC8LedStrip17SetupTagOutputPinE
1073496028 00000004 D _ZN3JCA3FNC8LedStrip17SetupTagPixelTypeE
1073496024 00000004 D _ZN3JCA3FNC8LedStrip18SetupTagPixelSpeedE
1074386668 00001380 T _ZN3JCA3FNC8LedStrip6CreateEN11ArduinoJson8V741PB2210JsonObjectES4_RSt6vectorIPNS0_10FuncParentESaIS7_EESt3mapI6StringPvSt4lessISC_ESaISt4pairIKSC_SD_EEE
1074385052 00000222 T _ZN3JCA3FNC8LedStrip6updateER2tm
1073496044 00000004 D _ZN3JCA3FNC8LedStrip9ClassNameE
1074385560 00001106 T _ZN3JCA3FNC8LedStripC1Ehht6String
1074385560 00001106 T _ZN3JCA3FNC8LedStripC2Ehht6String
1074384984 00000020 W _ZN3JCA3FNC8LedStripD0Ev
1074384956 00000027 W _ZN3JCA3FNC8LedStripD1Ev
1074384956 00000027 W _ZN3JCA3FNC8LedStripD2Ev
1074354236 00000123 T _ZN3JCA3FNC9AcDimmers12AddToHandlerERNS_3IOT11FuncHandlerE
1073495840 00000004 D _ZN3JCA3FNC9AcDimmers12SetupTagTypeE
1073495836 00000004 D _ZN3JCA3FNC9AcDimmers15SetupTagZeroPinE
1073495832 00000004 D _ZN3JCA3FNC9AcDimmers18SetupTagOutputPinsE
1074353604 00000200 T _ZN3JCA3FNC9AcDimmers4calcEv
1074357216 00000646 T _ZN3JCA3FNC9AcDimmers6CreateEN11ArduinoJson8V741PB2210JsonObjectES4_RSt6vectorIPNS0_10FuncParentESaIS7_EESt3mapI6StringPvSt4lessISC_ESaISt4pairIKSC_SD_EEE
1074353432 00000094 T _ZN3JCA3FNC9AcDimmers6updateER2tm
1073495824 00000008 D _ZN3JCA3FNC9AcDimmers7PortMuxE
1073893900 00000128 T _ZN3JCA3FNC9AcDimmers8isrTimerEPv
1073495844 00000004 D _ZN3JCA3FNC9AcDimmers9ClassNameE
1074354540 00002344 T _ZN3JCA3FNC9AcDimmersC1EhPhh6String
1074354540 00002344 T _ZN3JCA3FNC9AcDimmersC2EhPhh6String
1074353584 00000020 T _ZN3JCA3FNC9AcDimmersD0Ev
1074353528 00000054 T _ZN3JCA3FNC9AcDimmersD1Ev
1074353528 00000054 T _ZN3JCA3FNC9AcDimmersD2Ev
1074374212 00000123 T _ZN3JCA3FNC9DaySelect12AddToHandlerERNS_3IOT11FuncHandlerE
1073495960 00000004 D _ZN3JCA3FNC9DaySelect12SetupTagTypeE
1074375272 00000366 T _ZN3JCA3FNC9DaySelect6CreateEN11ArduinoJson8V741PB2210JsonObjectES4_RSt6vectorIPNS0_10FuncParentESaIS7_EESt3mapI6StringPvSt4lessISC_ESaISt4pairIKSC_SD_EEE
1074374060 00000111 T _ZN3JCA3FNC9DaySelect6updateER2tm
1073495964 00000004 D _ZN3JCA3FNC9DaySelect9ClassNameE
1074374336 00000590 T _ZN3JCA3FNC9DaySelectC1E6String
1074374336 00000590 T _ZN3JCA3FNC9DaySelectC2E6String
1074374192 00000020 W _ZN3JCA3FNC9DaySelectD0Ev
1074374172 00000018 W _ZN3JCA3FNC9DaySelectD1Ev
1074374172 00000018 W _ZN3JCA3FNC9DaySelectD2Ev
1074345384 00000548 T _ZN3JCA3IOT11FuncHandler10loadValuesEv
1074345932 00000460 T _ZN3JCA3IOT11FuncHandler10saveValuesEv
1074336260 00000051 T _ZN3JCA3IOT11FuncHandler11deleteLinksEv
1074977560 00000020 T _ZN3JCA3IOT11FuncHandler12getFuncCountEv
1074336388 00000122 T _ZN3JCA3IOT11FuncHandler12getFuncIndexE6String
1073495788 00000004 D _ZN3JCA3IOT11FuncHandler12JsonTagLinksE
1074344884 00000499 T _ZN3JCA3IOT11FuncHandler13saveFunctionsEv
1074336312 00000047 T _ZN3JCA3IOT11FuncHandler15deleteFunctionsEv
1073495796 00000004 D _ZN3JCA3IOT11FuncHandler15JsonTagHardwareE
1073495792 00000004 D _ZN3JCA3IOT11FuncHandler16JsonTagFunctionsE
1074353152 00000278 T _ZN3JCA3IOT11FuncHandler5patchE6String
1074346392 00006758 T _ZN3JCA3IOT11FuncHandler5setupEv
1074336360 00000025 T _ZN3JCA3IOT11FuncHandler6removeEv
1074336980 00000528 T _ZN3JCA3IOT11FuncHandler6updateER2tm
1074340732 00000520 T _ZN3JCA3IOT11FuncHandler9checkLinkE6StringRsS2_S3_N11ArduinoJson8V741PB229JsonArrayE
1074341340 00000247 T _ZN3JCA3IOT11FuncHandler9getValuesERN11ArduinoJson8V741PB2210JsonObjectE
1074337508 00000279 T _ZN3JCA3IOT11FuncHandler9setValuesERN11ArduinoJson8V741PB2210JsonObjectE
1074339060 00000316 T _ZN3JCA3IOT11FuncHandlerC1E6String
1074339060 00000316 T _ZN3JCA3IOT11FuncHandlerC2E6String
1074285568 00000066 W _ZN3JCA3IOT11FuncHandlerD1Ev
1074285568 00000066 W _ZN3JCA3IOT11FuncHandlerD2Ev
1074396900 00000025 T _ZN3JCA3IOT11WiFiConnect10setGatewayEPKc
1074978228 00000019 T _ZN3JCA3IOT11WiFiConnect11isConnectedEv
1074396816 00000055 T _ZN3JCA3IOT11WiFiConnect11setPasswordEPKc
1074396724 00000036 T _ZN3JCA3IOT11WiFiConnect11setStatePinEa
1074396956 00000044 T _ZN3JCA3IOT11WiFiConnect12isConfiguredEv
1074398932 00000134 T _ZN3JCA3IOT11WiFiConnect16replaceWildcardsERK6String
1074398800 00000104 T _ZN3JCA3IOT11WiFiConnect4initEv
1074396872 00000025 T _ZN3JCA3IOT11WiFiConnect5setIPEPKc
1074397000 00001799 T _ZN3JCA3IOT11WiFiConnect6handleEv
1074978212 00000013 T _ZN3JCA3IOT11WiFiConnect7setDHCPEb
1074396760 00000055 T _ZN3JCA3IOT11WiFiConnect7setSsidEPKc
1074398904 00000028 T _ZN3JCA3IOT11WiFiConnect9doConnectEv
1074396928 00000025 T _ZN3JCA3IOT11WiFiConnect9setSubnetEPKc
1074396684 00000022 T _ZN3JCA3IOT11WiFiConnectC1EPKcS3_
1074396496 00000185 T _ZN3JCA3IOT11WiFiConnectC1EPKcS3_S3_S3_S3_
1074396708 00000016 T _ZN3JCA3IOT11WiFiConnectC1Ev
1074396684 00000022 T _ZN3JCA3IOT11WiFiConnectC2EPKcS3_
1074396496 00000185 T _ZN3JCA3IOT11WiFiConnectC2EPKcS3_S3_S3_S3_
1074396708 00000016 T _ZN3JCA3IOT11WiFiConnectC2Ev
1074978204 00000005 T _ZN3JCA3IOT11WiFiConnectD1Ev
1074978204 00000005 T _ZN3JCA3IOT11WiFiConnectD2Ev
1074421516 00000334 T _ZN3JCA3IOT6Server10doWsUpdateEP20AsyncWebSocketClient
1074421496 00000018 T _ZN3JCA3IOT6Server10onWsUpdateESt8functionIFvRN11ArduinoJson8V741PB2211JsonVariantES6_EE
1074405444 00003856 T _ZN3JCA3IOT6Server10readConfigEv
1074401556 00000016 T _ZN3JCA3IOT6Server11setStatePinEa
1074401572 00000125 T _ZN3JCA3IOT6Server12getLocalTimeEv
1074399272 00000018 T _ZN3JCA3IOT6Server12onRestApiGetESt8functionIFvRN11ArduinoJson8V741PB2211JsonVariantES6_EE
1074399312 00000018 T _ZN3JCA3IOT6Server12onRestApiPutESt8functionIFvRN11ArduinoJson8V741PB2211JsonVariantES6_EE
1074402092 00000018 T _ZN3JCA3IOT6Server12onSaveConfigESt8functionIFvvEE
1074417572 00000194 T _ZN3JCA3IOT6Server12onWebHomeGetEP21AsyncWebServerRequest
1074421852 00001231 T _ZN3JCA3IOT6Server12wsHandleDataEP20AsyncWebSocketClientPvPhj
1074401324 00000054 T _ZN3JCA3IOT6Server13getLastSundayEii
1074399292 00000018 T _ZN3JCA3IOT6Server13onRestApiPostESt8functionIFvRN11ArduinoJson8V741PB2211JsonVariantES6_EE
1074402072 00000018 T _ZN3JCA3IOT6Server13onSystemResetESt8functionIFvvEE
1074399332 00000018 T _ZN3JCA3IOT6Server14onRestApiPatchESt8functionIFvRN11ArduinoJson8V741PB2211JsonVariantES6_EE
1074417768 00000194 T _ZN3JCA3IOT6Server14onWebConfigGetEP21AsyncWebServerRequest
1074417112 00000130 T _ZN3JCA3IOT6Server14onWebSystemGetEP21AsyncWebServerRequest
1074401724 00000150 T _ZN3JCA3IOT6Server15getTimeFormatedE6Stringb
1074399352 00000018 T _ZN3JCA3IOT6Server15onRestApiDeleteESt8functionIFvRN11ArduinoJson8V741PB2211JsonVariantES6_EE
1074416980 00000130 T _ZN3JCA3IOT6Server15onWebConnectGetEP21AsyncWebServerRequest
1074399372 00001058 T _ZN3JCA3IOT6Server16onRestApiRequestEP21AsyncWebServerRequestRN11ArduinoJson8V741PB2211JsonVariantE
1074419568 00001907 T _ZN3JCA3IOT6Server16onWebConnectPostEP21AsyncWebServerRequest
1074418416 00000018 T _ZN3JCA3IOT6Server16onWebHomeReplaceESt8functionIF6StringRKS3_EE
1074418124 00000198 T _ZN3JCA3IOT6Server16onWebSystemResetEP21AsyncWebServerRequest
1074414344 00000946 T _ZN3JCA3IOT6Server16udpPacketHandlerE14AsyncUDPPacket
1074417964 00000158 T _ZN3JCA3IOT6Server17onWebSystemUpdateEP21AsyncWebServerRequest
1074409300 00000846 T _ZN3JCA3IOT6Server17writeSystemConfigEv
1074401700 00000022 T _ZN3JCA3IOT6Server18getLocalTimeStructEv
1074418436 00000018 T _ZN3JCA3IOT6Server18onWebConfigReplaceESt8functionIF6StringRKS3_EE
1074415972 00000212 T _ZN3JCA3IOT6Server20replaceHomeWildcardsERK6String
1074415292 00000554 T _ZN3JCA3IOT6Server21onWebSystemUpdateDataEP21AsyncWebServerRequest6StringjPhjb
1074418544 00001022 T _ZN3JCA3IOT6Server21onWebSystemUploadDataEP21AsyncWebServerRequest6StringjPhjb
1074416216 00000362 T _ZN3JCA3IOT6Server22replaceSystemWildcardsERK6String
1074416596 00000367 T _ZN3JCA3IOT6Server23replaceConnectWildcardsERK6String
1074415848 00000124 T _ZN3JCA3IOT6Server23replaceDefaultWildcardsERK6String
1074410148 00001247 T _ZN3JCA3IOT6Server4initEv
1074401380 00000156 T _ZN3JCA3IOT6Server6handleEv
1074401536 00000020 T _ZN3JCA3IOT6Server7setTimeEmi
1074421476 00000018 T _ZN3JCA3IOT6Server8onWsDataESt8functionIFvRN11ArduinoJson8V741PB2211JsonVariantES6_EE
1074423084 00000130 T _ZN3JCA3IOT6Server9onWsEventEP14AsyncWebSocketP20AsyncWebSocketClient12AwsEventTypePvPhj
1074412340 00000026 T _ZN3JCA3IOT6ServerC1EPKctt
1074412304 00000034 T _ZN3JCA3IOT6ServerC1EPKcttS3_S3_
1074411396 00000906 T _ZN3JCA3IOT6ServerC1EPKcttS3_S3_mb
1074412368 00000020 T _ZN3JCA3IOT6ServerC1Ev
1074412340 00000026 T _ZN3JCA3IOT6ServerC2EPKctt
1074412304 00000034 T _ZN3JCA3IOT6ServerC2EPKcttS3_S3_
1074411396 00000906 T _ZN3JCA3IOT6ServerC2EPKcttS3_S3_mb
1074412368 00000020 T _ZN3JCA3IOT6ServerC2Ev
1074285732 00000178 W _ZN3JCA3IOT6ServerD1Ev
1074285732 00000178 W _ZN3JCA3IOT6ServerD2Ev
1074977532 00000027 T _ZN3JCA3IOT8FuncLink9getOutputEh
1074336160 00000061 T _ZN3JCA3IOT8FuncLinkC1ENS0_14FuncLinkType_TE
1074336160 00000061 T _ZN3JCA3IOT8FuncLinkC2ENS0_14FuncLinkType_TE
1074336224 00000034 T _ZN3JCA3IOT8FuncLinkD1Ev
1074336224 00000034 T _ZN3JCA3IOT8FuncLinkD2Ev
1074879892 00000146 T _ZN3JCA3SYS10TimerESP3210autoReloadEhb
1074879576 00000314 T _ZN3JCA3SYS10TimerESP3212restartTimerEhy
1074879236 00000034 T _ZN3JCA3SYS10TimerESP3214isrCallbackAddEhRKPFbPvES2_
1074879272 00000302 T _ZN3JCA3SYS10TimerESP328addTimerEbbb
1074988628 00000014 T _ZN3JCA3SYS12EspErrorIsOKEi
1074988572 00000053 T _ZN3JCA3SYS12HexCharToIntEc
1074899296 00000106 T _ZN3JCA3SYS16EspErrorDebugOutEiNS0_14DEBUGOUT_FLAGSE
1074899140 00000155 T _ZN3JCA3SYS20ByteArrayToHexStringEPhh
1074899044 00000096 T _ZN3JCA3SYS20HexStringToByteArrayE6StringPhh
1073514084 00000092 B _ZN3JCA3SYS5DebugE
1074325140 00000135 T _ZN3JCA3SYS8DebugOut4initEtm
1074327060 00000166 T _ZN3JCA3SYS8DebugOut5printENS0_14DEBUGOUT_FLAGSEb6StringPKcc
1074325276 00000159 T _ZN3JCA3SYS8DebugOut5printENS0_14DEBUGOUT_FLAGSEb6StringPKcd
1074326760 00000166 T _ZN3JCA3SYS8DebugOut5printENS0_14DEBUGOUT_FLAGSEb6StringPKch
1074326460 00000166 T _ZN3JCA3SYS8DebugOut5printENS0_14DEBUGOUT_FLAGSEb6StringPKci
1074326160 00000166 T _ZN3JCA3SYS8DebugOut5printENS0_14DEBUGOUT_FLAGSEb6StringPKcj
1074325860 00000166 T _ZN3JCA3SYS8DebugOut5printENS0_14DEBUGOUT_FLAGSEb6StringPKcm
1074324540 00000166 T _ZN3JCA3SYS8DebugOut5printENS0_14DEBUGOUT_FLAGSEb6StringPKcRKS3_
1074324840 00000166 T _ZN3JCA3SYS8DebugOut5printENS0_14DEBUGOUT_FLAGSEb6StringPKcS5_
1074325568 00000159 T _ZN3JCA3SYS8DebugOut5printENS0_14DEBUGOUT_FLAGSEb6StringPKcy
1074325436 00000131 T _ZN3JCA3SYS8DebugOut7printlnENS0_14DEBUGOUT_FLAGSEb6StringPKcd
1074326928 00000131 T _ZN3JCA3SYS8DebugOut7printlnENS0_14DEBUGOUT_FLAGSEb6StringPKch
1074326628 00000131 T _ZN3JCA3SYS8DebugOut7printlnENS0_14DEBUGOUT_FLAGSEb6StringPKci
1074326328 00000131 T _ZN3JCA3SYS8DebugOut7printlnENS0_14DEBUGOUT_FLAGSEb6StringPKcj
1074326028 00000131 T _ZN3JCA3SYS8DebugOut7printlnENS0_14DEBUGOUT_FLAGSEb6StringPKcm
1074324708 00000131 T _ZN3JCA3SYS8DebugOut7printlnENS0_14DEBUGOUT_FLAGSEb6StringPKcRKS3_
1074325008 00000131 T _ZN3JCA3SYS8DebugOut7printlnENS0_14DEBUGOUT_FLAGSEb6StringPKcS5_
1074325728 00000131 T _ZN3JCA3SYS8DebugOut7printlnENS0_14DEBUGOUT_FLAGSEb6StringPKcy
1074324140 00000399 T _ZN3JCA3SYS8DebugOut9getPrefixENS0_14DEBUGOUT_FLAGSEb6StringPKc
1074323940 00000199 T _ZN3JCA3SYS8DebugOutC1ERK14HardwareSerial
1074323940 00000199 T _ZN3JCA3SYS8DebugOutC2ERK14HardwareSerial
1074880040 00000390 T _ZN3JCA3SYS9PwmOutput8writePinEhf
1073495848 00000064 d _ZN3JCA3SYSL18TimerESP32_HandlerE
1074874204 00000110 T _ZN3JCA3TAG12TagListUInt88addValueERN11ArduinoJson8V741PB2210JsonObjectE
1074873792 00000041 T _ZN3JCA3TAG12TagListUInt88getValueEN11ArduinoJson8V741PB2211JsonVariantE
1074873944 00000258 T _ZN3JCA3TAG12TagListUInt88setValueEN11ArduinoJson8V741PB2211JsonVariantE
1074872976 00000607 T _ZN3JCA3TAG12TagListUInt88writeTagEv
1074873584 00000208 T _ZN3JCA3TAG12TagListUInt8C1E6StringS2_S2_bNS0_10TagUsage_TEPh
1074873584 00000208 T _ZN3JCA3TAG12TagListUInt8C2E6StringS2_S2_bNS0_10TagUsage_TEPh
1074873924 00000018 T _ZN3JCA3TAG12TagListUInt8D0Ev
1074873872 00000050 T _ZN3JCA3TAG12TagListUInt8D1Ev
1074873872 00000050 T _ZN3JCA3TAG12TagListUInt8D2Ev
1074867716 00000180 T _ZN3JCA3TAG13TagArrayUInt88addValueERN11ArduinoJson8V741PB2210JsonObjectE
1074867596 00000119 T _ZN3JCA3TAG13TagArrayUInt88getValueEN11ArduinoJson8V741PB2211JsonVariantE
1074867896 00000318 T _ZN3JCA3TAG13TagArrayUInt88setValueEN11ArduinoJson8V741PB2211JsonVariantE
1074867168 00000015 T _ZN3JCA3TAG13TagArrayUInt88writeTagEv
1074867296 00000200 T _ZN3JCA3TAG13TagArrayUInt8C1E6StringS2_S2_bNS0_10TagUsage_TEPhh
1074867296 00000200 T _ZN3JCA3TAG13TagArrayUInt8C2E6StringS2_S2_bNS0_10TagUsage_TEPhh
1074867276 00000020 W _ZN3JCA3TAG13TagArrayUInt8D0Ev
1074867256 00000018 W _ZN3JCA3TAG13TagArrayUInt8D1Ev
1074867256 00000018 W _ZN3JCA3TAG13TagArrayUInt8D2Ev
1074869432 00000150 T _ZN3JCA3TAG7TagBool8addValueERN11ArduinoJson8V741PB2210JsonObjectE
1074869388 00000042 T _ZN3JCA3TAG7TagBool8getValueEN11ArduinoJson8V741PB2211JsonVariantE
1074869208 00000178 T _ZN3JCA3TAG7TagBool8setValueEN11ArduinoJson8V741PB2211JsonVariantE
1074868216 00000282 T _ZN3JCA3TAG7TagBool8writeTagEv
1074868908 00000298 T _ZN3JCA3TAG7TagBoolC1E6StringS2_S2_bNS0_10TagUsage_TEPbS2_S2_NS0_10TagTypes_TE
1074868548 00000360 T _ZN3JCA3TAG7TagBoolC1E6StringS2_S2_bNS0_10TagUsage_TEPbS2_S2_St8functionIFvvEENS0_10TagTypes_TE
1074868908 00000298 T _ZN3JCA3TAG7TagBoolC2E6StringS2_S2_bNS0_10TagUsage_TEPbS2_S2_NS0_10TagTypes_TE
1074868548 00000360 T _ZN3JCA3TAG7TagBoolC2E6StringS2_S2_bNS0_10TagUsage_TEPbS2_S2_St8functionIFvvEENS0_10TagTypes_TE
1074868528 00000018 W _ZN3JCA3TAG7TagBoolD0Ev
1074868500 00000028 W _ZN3JCA3TAG7TagBoolD1Ev
1074868500 00000028 W _ZN3JCA3TAG7TagBoolD2Ev
1074870396 00000150 T _ZN3JCA3TAG8TagFloat8addValueERN11ArduinoJson8V741PB2210JsonObjectE
1074870068 00000041 T _ZN3JCA3TAG8TagFloat8getValueEN11ArduinoJson8V741PB2211JsonVariantE
1074870356 00000040 T _ZN3JCA3TAG8TagFloat8setValueEN11ArduinoJson8V741PB2211JsonVariantE
1074869584 00000182 T _ZN3JCA3TAG8TagFloat8writeTagEv
1074869812 00000255 T _ZN3JCA3TAG8TagFloatC1E6StringS2_S2_bNS0_10TagUsage_TEPfS2_NS0_10TagTypes_TE
1074869812 00000255 T _ZN3JCA3TAG8TagFloatC2E6StringS2_S2_bNS0_10TagUsage_TEPfS2_NS0_10TagTypes_TE
1074869792 00000018 W _ZN3JCA3TAG8TagFloatD0Ev
1074869768 00000023 W _ZN3JCA3TAG8TagFloatD1Ev
1074869768 00000023 W _ZN3JCA3TAG8TagFloatD2Ev
1074871640 00000150 T _ZN3JCA3TAG8TagInt168addValueERN11ArduinoJson8V741PB2210JsonObjectE
1074871032 00000041 T _ZN3JCA3TAG8TagInt168getValueEN11ArduinoJson8V741PB2211JsonVariantE
1074871596 00000042 T _ZN3JCA3TAG8TagInt168setValueEN11ArduinoJson8V741PB2211JsonVariantE
1074870548 00000182 T _ZN3JCA3TAG8TagInt168writeTagEv
1074870776 00000255 T _ZN3JCA3TAG8TagInt16C1E6StringS2_S2_bNS0_10TagUsage_TEPsS2_NS0_10TagTypes_TE
1074870776 00000255 T _ZN3JCA3TAG8TagInt16C2E6StringS2_S2_bNS0_10TagUsage_TEPsS2_NS0_10TagTypes_TE
1074870756 00000018 W _ZN3JCA3TAG8TagInt16D0Ev
1074870732 00000023 W _ZN3JCA3TAG8TagInt16D1Ev
1074870732 00000023 W _ZN3JCA3TAG8TagInt16D2Ev
1074872824 00000150 T _ZN3JCA3TAG8TagInt328addValueERN11ArduinoJson8V741PB2210JsonObjectE
1074872276 00000041 T _ZN3JCA3TAG8TagInt328getValueEN11ArduinoJson8V741PB2211JsonVariantE
1074872784 00000040 T _ZN3JCA3TAG8TagInt328setValueEN11ArduinoJson8V741PB2211JsonVariantE
1074871792 00000182 T _ZN3JCA3TAG8TagInt328writeTagEv
1074872020 00000255 T _ZN3JCA3TAG8TagInt32C1E6StringS2_S2_bNS0_10TagUsage_TEPiS2_NS0_10TagTypes_TE
1074872020 00000255 T _ZN3JCA3TAG8TagInt32C2E6StringS2_S2_bNS0_10TagUsage_TEPiS2_NS0_10TagTypes_TE
1074872000 00000018 W _ZN3JCA3TAG8TagInt32D0Ev
1074871976 00000023 W _ZN3JCA3TAG8TagInt32D1Ev
1074871976 00000023 W _ZN3JCA3TAG8TagInt32D2Ev
1074877892 00000150 T _ZN3JCA3TAG8TagUInt88addValueERN11ArduinoJson8V741PB2210JsonObjectE
1074877800 00000041 T _ZN3JCA3TAG8TagUInt88getValueEN11ArduinoJson8V741PB2211JsonVariantE
1074877844 00000046 T _ZN3JCA3TAG8TagUInt88setValueEN11ArduinoJson8V741PB2211JsonVariantE
1074877244 00000182 T _ZN3JCA3TAG8TagUInt88writeTagEv
1074877476 00000322 T _ZN3JCA3TAG8TagUInt8C1E6StringS2_S2_bNS0_10TagUsage_TEPhS2_St8functionIFvvEENS0_10TagTypes_TE
1074877476 00000322 T _ZN3JCA3TAG8TagUInt8C2E6StringS2_S2_bNS0_10TagUsage_TEPhS2_St8functionIFvvEENS0_10TagTypes_TE
1074877456 00000018 W _ZN3JCA3TAG8TagUInt8D0Ev
1074877428 00000027 W _ZN3JCA3TAG8TagUInt8D1Ev
1074877428 00000027 W _ZN3JCA3TAG8TagUInt8D2Ev
1074878532 00000703 T _ZN3JCA3TAG9TagParent12writeTagBaseEv
1074987712 00000005 W _ZN3JCA3TAG9TagParent8addValueERN11ArduinoJson8V741PB2210JsonObjectE
1074987696 00000007 W _ZN3JCA3TAG9TagParent8getValueEN11ArduinoJson8V741PB2211JsonVariantE
1074987704 00000007 W _ZN3JCA3TAG9TagParent8setValueEN11ArduinoJson8V741PB2211JsonVariantE
1074867184 00000013 W _ZN3JCA3TAG9TagParent8writeTagEv
1074878352 00000179 T _ZN3JCA3TAG9TagParentC1E6StringS2_S2_bPvNS0_10TagTypes_TENS0_10TagUsage_TE
1074878044 00000307 T _ZN3JCA3TAG9TagParentC1E6StringS2_S2_bPvNS0_10TagTypes_TENS0_10TagUsage_TESt8functionIFvvEE
1074878352 00000179 T _ZN3JCA3TAG9TagParentC2E6StringS2_S2_bPvNS0_10TagTypes_TENS0_10TagUsage_TE
1074878044 00000307 T _ZN3JCA3TAG9TagParentC2E6StringS2_S2_bPvNS0_10TagTypes_TENS0_10TagUsage_TESt8functionIFvvEE
1074867236 00000020 W _ZN3JCA3TAG9TagParentD0Ev
1074867200 00000034 W _ZN3JCA3TAG9TagParentD1Ev
1074867200 00000034 W _ZN3JCA3TAG9TagParentD2Ev
1074874872 00000094 T _ZN3JCA3TAG9TagString8addValueERN11ArduinoJson8V741PB2210JsonObjectE
1074874832 00000040 T _ZN3JCA3TAG9TagString8getValueEN11ArduinoJson8V741PB2211JsonVariantE
1074874968 00000166 T _ZN3JCA3TAG9TagString8setValueEN11ArduinoJson8V741PB2211JsonVariantE
1074874316 00000015 T _ZN3JCA3TAG9TagString8writeTagEv
1074874636 00000196 T _ZN3JCA3TAG9TagStringC1E6StringS2_S2_bNS0_10TagUsage_TEPS2_NS0_10TagTypes_TE
1074874372 00000262 T _ZN3JCA3TAG9TagStringC1E6StringS2_S2_bNS0_10TagUsage_TEPS2_St8functionIFvvEENS0_10TagTypes_TE
1074874636 00000196 T _ZN3JCA3TAG9TagStringC2E6StringS2_S2_bNS0_10TagUsage_TEPS2_NS0_10TagTypes_TE
1074874372 00000262 T _ZN3JCA3TAG9TagStringC2E6StringS2_S2_bNS0_10TagUsage_TEPS2_St8functionIFvvEENS0_10TagTypes_TE
1074874352 00000020 W _ZN3JCA3TAG9TagStringD0Ev
1074874332 00000018 W _ZN3JCA3TAG9TagStringD1Ev
1074874332 00000018 W _ZN3JCA3TAG9TagStringD2Ev
1074876040 00000150 T _ZN3JCA3TAG9TagUInt168addValueERN11ArduinoJson8V741PB2210JsonObjectE
1074875948 00000041 T _ZN3JCA3TAG9TagUInt168getValueEN11ArduinoJson8V741PB2211JsonVariantE
1074875992 00000046 T _ZN3JCA3TAG9TagUInt168setValueEN11ArduinoJson8V741PB2211JsonVariantE
1074875136 00000182 T _ZN3JCA3TAG9TagUInt168writeTagEv
1074875692 00000255 T _ZN3JCA3TAG9TagUInt16C1E6StringS2_S2_bNS0_10TagUsage_TEPtS2_NS0_10TagTypes_TE
1074875368 00000322 T _ZN3JCA3TAG9TagUInt16C1E6StringS2_S2_bNS0_10TagUsage_TEPtS2_St8functionIFvvEENS0_10TagTypes_TE
1074875692 00000255 T _ZN3JCA3TAG9TagUInt16C2E6StringS2_S2_bNS0_10TagUsage_TEPtS2_NS0_10TagTypes_TE
1074875368 00000322 T _ZN3JCA3TAG9TagUInt16C2E6StringS2_S2_bNS0_10TagUsage_TEPtS2_St8functionIFvvEENS0_10TagTypes_TE
1074875348 00000018 W _ZN3JCA3TAG9TagUInt16D0Ev
1074875320 00000027 W _ZN3JCA3TAG9TagUInt16D1Ev
1074875320 00000027 W _ZN3JCA3TAG9TagUInt16D2Ev
1074877092 00000150 T _ZN3JCA3TAG9TagUInt328addValueERN11ArduinoJson8V741PB2210JsonObjectE
1074877004 00000041 T _ZN3JCA3TAG9TagUInt328getValueEN11ArduinoJson8V741PB2211JsonVariantE
1074877048 00000044 T _ZN3JCA3TAG9TagUInt328setValueEN11ArduinoJson8V741PB2211JsonVariantE
1074876192 00000182 T _ZN3JCA3TAG9TagUInt328writeTagEv
1074876748 00000255 T _ZN3JCA3TAG9TagUInt32C1E6StringS2_S2_bNS0_10TagUsage_TEPjS2_NS0_10TagTypes_TE
1074876424 00000322 T _ZN3JCA3TAG9TagUInt32C1E6StringS2_S2_bNS0_10TagUsage_TEPjS2_St8functionIFvvEENS0_10TagTypes_TE
1074876748 00000255 T _ZN3JCA3TAG9TagUInt32C2E6StringS2_S2_bNS0_10TagUsage_TEPjS2_NS0_10TagTypes_TE
1074876424 00000322 T _ZN3JCA3TAG9TagUInt32C2E6StringS2_S2_bNS0_10TagUsage_TEPjS2_St8functionIFvvEENS0_10TagTypes_TE
1074876404 00000018 W _ZN3JCA3TAG9TagUInt32D0Ev
1074876376 00000027 W _ZN3JCA3TAG9TagUInt32D1Ev
1074876376 00000027 W _ZN3JCA3TAG9TagUInt32D2Ev
1074471548 00000073 T _ZN3nvs11PageManager12activatePageEv
1074471624 00000173 T _ZN3nvs11PageManager14requestNewPageEv
1074471800 00000835 T _ZN3nvs11PageManager4loadEPNS_9PartitionEjj
1074466524 00000016 T _ZN3nvs12NVSPartition11erase_rangeEjj
1074979824 00000009 T _ZN3nvs12NVSPartition11get_addressEv
1074979812 00000010 T _ZN3nvs12NVSPartition18get_partition_nameEv
1074466556 00000029 T _ZN3nvs12NVSPartition4readEjPvj
1074466588 00000029 T _ZN3nvs12NVSPartition5writeEjPKvj
1074979836 00000009 T _ZN3nvs12NVSPartition8get_sizeEv
1074466476 00000021 T _ZN3nvs12NVSPartition8read_rawEjPvj
1074466500 00000021 T _ZN3nvs12NVSPartition9write_rawEjPKvj
1074466620 00000026 T _ZN3nvs12NVSPartitionC1EPK15esp_partition_t
1074466620 00000026 T _ZN3nvs12NVSPartitionC2EPK15esp_partition_t
1074466540 00000014 W _ZN3nvs12NVSPartitionD0Ev
1074979804 00000005 W _ZN3nvs12NVSPartitionD1Ev
1074979804 00000005 W _ZN3nvs12NVSPartitionD2Ev
1074466440 00000036 T _ZN3nvs15NVSHandleSimple10erase_itemEPKc
1074466208 00000034 T _ZN3nvs15NVSHandleSimple10get_stringEPKcPcj
1074466280 00000048 T _ZN3nvs15NVSHandleSimple10set_stringEPKcS2_
1074466328 00000033 T _ZN3nvs15NVSHandleSimple13get_item_sizeENS_8ItemTypeEPKcRj
1074466176 00000032 T _ZN3nvs15NVSHandleSimple14get_typed_itemENS_8ItemTypeEPKcPvj
1074466092 00000040 T _ZN3nvs15NVSHandleSimple14set_typed_itemENS_8ItemTypeEPKcPKvj
1074466400 00000038 T _ZN3nvs15NVSHandleSimple20get_used_entry_countERj
1074466036 00000016 T _ZN3nvs15NVSHandleSimple6commitEv
1074466244 00000034 T _ZN3nvs15NVSHandleSimple8get_blobEPKcPvj
1074466132 00000042 T _ZN3nvs15NVSHandleSimple8set_blobEPKcPKvj
1074466364 00000034 T _ZN3nvs15NVSHandleSimple9erase_allEv
1074466072 00000018 T _ZN3nvs15NVSHandleSimpleD0Ev
1074466052 00000020 T _ZN3nvs15NVSHandleSimpleD1Ev
1074466052 00000020 T _ZN3nvs15NVSHandleSimpleD2Ev
1074472636 00000054 T _ZN3nvs16partition_lookup20lookup_nvs_partitionEPKcPPNS_12NVSPartitionE
1074466896 00000189 T _ZN3nvs19NVSPartitionManager11init_customEPNS_9PartitionEjj
1074466752 00000142 T _ZN3nvs19NVSPartitionManager11open_handleEPKcS2_15nvs_open_mode_tPPNS_15NVSHandleSimpleE
1074467208 00000035 T _ZN3nvs19NVSPartitionManager12close_handleEPNS_15NVSHandleSimpleE
1074466664 00000050 T _ZN3nvs19NVSPartitionManager12get_instanceEv
1074467088 00000119 T _ZN3nvs19NVSPartitionManager14init_partitionEPKc
1074466716 00000034 T _ZN3nvs19NVSPartitionManager24lookup_storage_from_nameEPKc
1073515700 00000004 B _ZN3nvs19NVSPartitionManager8instanceE
1074466648 00000014 W _ZN3nvs19NVSPartitionManagerD0Ev
1074979848 00000005 W _ZN3nvs19NVSPartitionManagerD1Ev
1074979848 00000005 W _ZN3nvs19NVSPartitionManagerD2Ev
1074980012 00000038 W _ZN3nvs20isVariableLengthTypeENS_8ItemTypeE
1074472776 00000020 T _ZN3nvs4Item14calculateCrc32EPKhj
1074467592 00000058 W _ZN3nvs4ItemC1EhNS_8ItemTypeEhPKch
1074467592 00000058 W _ZN3nvs4ItemC2EhNS_8ItemTypeEhPKch
1073515692 00000004 B _ZN3nvs4Lock10mSemaphoreE
1074461124 00000033 W _ZN3nvs4Lock4initEv
1074460992 00000020 t _ZN3nvs4LockC2Ev$constprop$18
1074460968 00000024 t _ZN3nvs4LockD2Ev$constprop$17
1074467720 00000132 T _ZN3nvs4Page10initializeEv
1074467852 00000087 T _ZN3nvs4Page10writeEntryERKNS_4ItemE
1074468596 00000032 T _ZN3nvs4Page11markFreeingEv
1074468524 00000020 T _ZN3nvs4Page12setSeqNumberEj
1074980268 00000032 T _ZN3nvs4Page14alterPageStateENS0_9PageStateE
1074467940 00000170 T _ZN3nvs4Page14writeEntryDataEPKhj
1074980052 00000088 T _ZN3nvs4Page15alterEntryStateEjNS0_10EntryStateE
1074470144 00000834 T _ZN3nvs4Page15mLoadEntryTableEv
1074468760 00000318 T _ZN3nvs4Page17eraseEntryAndSpanEj
1074980140 00000126 T _ZN3nvs4Page20alterEntryRangeStateEjjNS0_10EntryStateE
1074468696 00000063 T _ZN3nvs4Page20updateFirstUsedEntryEjj
1074470980 00000344 T _ZN3nvs4Page4loadEPNS_9PartitionEj
1074468544 00000051 T _ZN3nvs4Page5eraseEv
1074467700 00000020 T _ZN3nvs4Page6Header14calculateCrc32Ev
1074469792 00000268 T _ZN3nvs4Page7cmpItemEhNS_8ItemTypeEPKcPKvjhNS_9VerOffsetE
1074469080 00000446 T _ZN3nvs4Page8findItemEhNS_8ItemTypeEPKcRjRNS_4ItemEhNS_9VerOffsetE
1074468628 00000028 T _ZN3nvs4Page8markFullEv
1074469528 00000264 T _ZN3nvs4Page8readItemEhNS_8ItemTypeEPKcPvjhNS_9VerOffsetE
1074471324 00000198 T _ZN3nvs4Page9copyItemsERS0_
1074470060 00000083 T _ZN3nvs4Page9eraseItemEhNS_8ItemTypeEPKchNS_9VerOffsetE
1074468112 00000378 T _ZN3nvs4Page9writeItemEhNS_8ItemTypeEPKcPKvjh
1074467652 00000045 T _ZN3nvs4PageC1Ev
1074467652 00000045 T _ZN3nvs4PageC2Ev
1074464976 00000063 T _ZN3nvs7Storage14eraseNamespaceEh
1074465040 00000127 T _ZN3nvs7Storage15getItemDataSizeEhNS_8ItemTypeEPKcRj
1074463364 00000231 T _ZN3nvs7Storage16cmpMultiPageBlobEhPKcPKvj
1074463820 00000270 T _ZN3nvs7Storage17readMultiPageBlobEhPKcPvj
1074463596 00000222 T _ZN3nvs7Storage18eraseMultiPageBlobEhPKcNS_9VerOffsetE
1074462820 00000544 T _ZN3nvs7Storage18writeMultiPageBlobEhPKcPKvjNS_9VerOffsetE
1074462256 00000174 T _ZN3nvs7Storage19populateBlobIndicesER14intrusive_listINS0_13BlobIndexNodeEE
1074462432 00000310 T _ZN3nvs7Storage20eraseOrphanDataBlobsER14intrusive_listINS0_13BlobIndexNodeEE
1074465436 00000237 T _ZN3nvs7Storage21createOrOpenNamespaceEPKcbRh
1074465168 00000127 T _ZN3nvs7Storage22calcEntriesInNamespaceEhRj
1074465676 00000360 T _ZN3nvs7Storage4initEjj
1074462744 00000074 T _ZN3nvs7Storage8findItemEhNS_8ItemTypeEPKcRPNS_4PageERNS_4ItemEhNS_9VerOffsetE
1074464092 00000146 T _ZN3nvs7Storage8readItemEhNS_8ItemTypeEPKcPvj
1074464820 00000153 T _ZN3nvs7Storage9eraseItemEhNS_8ItemTypeEPKc
1074464240 00000578 T _ZN3nvs7Storage9writeItemEhNS_8ItemTypeEPKcPKvj
1074465344 00000089 T _ZN3nvs7StorageD1Ev
1074465344 00000089 T _ZN3nvs7StorageD2Ev
1074979944 00000030 T _ZN3nvs8HashList13HashListBlockC1Ev
1074979944 00000030 T _ZN3nvs8HashList13HashListBlockC2Ev
1074467376 00000066 T _ZN3nvs8HashList4findEjRKNS_4ItemE
1074467444 00000035 T _ZN3nvs8HashList5clearEv
1074467492 00000097 T _ZN3nvs8HashList5eraseEj
1074467244 00000130 T _ZN3nvs8HashList6insertERKNS_4ItemEj
1074979928 00000013 T _ZN3nvs8HashListC1Ev
1074979928 00000013 T _ZN3nvs8HashListC2Ev
1074467480 00000010 T _ZN3nvs8HashListD1Ev
1074467480 00000010 T _ZN3nvs8HashListD2Ev
1074432044 00000365 T _ZN5Print10printFloatEdh
1074431636 00000104 T _ZN5Print11printNumberEmh
1074431872 00000134 T _ZN5Print11printNumberEyh
1074977020 00000007 W _ZN5Print17availableForWriteEv
1074977028 00000005 W _ZN5Print5flushEv
1074979300 00000020 T _ZN5Print5printEc
1074432412 00000022 T _ZN5Print5printEdi
1074431836 00000020 T _ZN5Print5printEhi
1074431784 00000016 T _ZN5Print5printEii
1074431856 00000016 T _ZN5Print5printEji
1074431740 00000043 T _ZN5Print5printEli
1074431800 00000033 T _ZN5Print5printEmi
1074431548 00000017 T _ZN5Print5printEPKc
1074979256 00000041 T _ZN5Print5printERK6String
1074432008 00000034 T _ZN5Print5printEyi
1074431352 00000030 W _ZN5Print5writeEPKc
1074431384 00000162 T _ZN5Print6printfEPKcz
1074431612 00000024 T _ZN5Print7printlnEPKc
1074431588 00000024 T _ZN5Print7printlnERK6String
1074431568 00000018 T _ZN5Print7printlnEv
1074979320 00000007 T _ZN6Stream10getTimeoutEv
1074432512 00000061 T _ZN6Stream10readStringEv
1074432480 00000031 T _ZN6Stream9readBytesEPcj
1074978040 00000020 W _ZN6Stream9readBytesEPhj
1074432436 00000042 T _ZN6Stream9timedReadEv
1074432608 00000027 T _ZN6String10invalidateEv
1074435976 00000034 T _ZN6String11toLowerCaseEv
1074432648 00000270 T _ZN6String12changeBufferEj
1074433000 00000059 T _ZN6String4copyEPKcj
1074432576 00000030 W _ZN6String4initEv
1074433092 00000242 T _ZN6String4moveERS_
1074436012 00000134 T _ZN6String4trimEv
1074976824 00000037 W _ZN6String5clearEv
1074434112 00000024 T _ZN6String6concatEc
1074434136 00000040 T _ZN6String6concatEh
1074434176 00000071 T _ZN6String6concatEi
1074434080 00000032 T _ZN6String6concatEPKc
1074433800 00000102 T _ZN6String6concatEPKcj
1074433904 00000174 T _ZN6String6concatERKS_
1074979352 00000051 W _ZN6String6setLenEi
1074435424 00000550 T _ZN6String7replaceERKS_S1_
1074432920 00000077 T _ZN6String7reserveEj
1074433444 00000015 T _ZN6StringaSEO15StringSumHelper
1074433428 00000015 T _ZN6StringaSEOS_
1074433460 00000036 T _ZN6StringaSEPKc
1074433356 00000049 T _ZN6StringaSERKS_
1074433496 00000031 T _ZN6StringC1Ec
1074433528 00000070 T _ZN6StringC1Ehh
1074433600 00000066 T _ZN6StringC1Eih
1074433668 00000066 T _ZN6StringC1Ejh
1074433736 00000062 T _ZN6StringC1Emh
1074433336 00000020 T _ZN6StringC1EOS_
1074433060 00000032 T _ZN6StringC1EPKc
1074433408 00000020 T _ZN6StringC1ERKS_
1074433496 00000031 T _ZN6StringC2Ec
1074433528 00000070 T _ZN6StringC2Ehh
1074433600 00000066 T _ZN6StringC2Eih
1074433668 00000066 T _ZN6StringC2Ejh
1074433736 00000062 T _ZN6StringC2Emh
1074433336 00000020 T _ZN6StringC2EOS_
1074433060 00000032 T _ZN6StringC2EPKc
1074433408 00000020 T _ZN6StringC2ERKS_
1074432636 00000010 T _ZN6StringD1Ev
1074432636 00000010 T _ZN6StringD2Ev
1074434924 00000041 T _ZN6StringixEj
1074865048 00000026 T _ZN7OneWire10read_bytesEPht
1074865116 00000060 T _ZN7OneWire4crc8EPKhh
1074865008 00000038 T _ZN7OneWire4readEv
1073917196 00000392 T _ZN7OneWire5resetEv
1074864824 00000182 T _ZN7OneWire5writeEhh
1074865076 00000038 T _ZN7OneWire6selectEPKh
1073917968 00000239 T _ZN7OneWire8read_bitEv
1073917588 00000377 T _ZN7OneWire9write_bitEh
1074865748 00000021 T _ZN7TwoWire11requestFromEhh
1074865604 00000143 T _ZN7TwoWire11requestFromEtjb
1074865252 00000034 T _ZN7TwoWire14freeWireBufferEv
1074865512 00000092 T _ZN7TwoWire15endTransmissionEb
1074865772 00000013 T _ZN7TwoWire17beginTransmissionEh
1074865440 00000070 T _ZN7TwoWire17beginTransmissionEt
1074865288 00000101 T _ZN7TwoWire3endEv
1074987504 00000025 T _ZN7TwoWire4peekEv
1074987472 00000030 T _ZN7TwoWire4readEv
1074987532 00000013 T _ZN7TwoWire5flushEv
1074987388 00000036 T _ZN7TwoWire5writeEh
1074987424 00000034 T _ZN7TwoWire5writeEPKhj
1074987460 00000012 T _ZN7TwoWire9availableEv
1074865176 00000073 T _ZN7TwoWireC1Eh
1074865176 00000073 T _ZN7TwoWireC2Eh
1074865420 00000020 T _ZN7TwoWireD0Ev
1074865392 00000028 T _ZN7TwoWireD1Ev
1074865392 00000028 T _ZN7TwoWireD2Ev
1074854088 00000452 T _ZN7VFSImpl4openEPKcS1_b
1074853380 00000180 T _ZN7VFSImpl5mkdirEPKc
1074853560 00000197 T _ZN7VFSImpl5rmdirEPKc
1074853172 00000208 T _ZN7VFSImpl6removeEPKc
1074852244 00000218 T _ZN7VFSImpl6renameEPKcS1_
1074395688 00000036 T _ZN8AsyncUDP5_initEv
1074396168 00000104 T _ZN8AsyncUDP5_recvEP7udp_pcbP4pbufPK7ip_addrtP5netif
1074395748 00000032 T _ZN8AsyncUDP5closeEv
1074978172 00000024 T _ZN8AsyncUDP5writeEh
1074396136 00000029 T _ZN8AsyncUDP5writeEPKhj
1074395856 00000082 T _ZN8AsyncUDP6listenEPK7ip_addrt
1074396340 00000021 T _ZN8AsyncUDP6listenEt
1074395940 00000164 T _ZN8AsyncUDP7writeToEPKhjPK7ip_addrt18tcpip_adapter_if_t
1074396480 00000013 T _ZN8AsyncUDP8onPacketESt8functionIFvR14AsyncUDPPacketEE
1074395724 00000023 T _ZN8AsyncUDPC1Ev
1074395724 00000023 T _ZN8AsyncUDPC2Ev
1074395836 00000020 T _ZN8AsyncUDPD0Ev
1074395780 00000055 T _ZN8AsyncUDPD1Ev
1074395780 00000055 T _ZN8AsyncUDPD2Ev
1074429604 00000027 T _ZN8EspClass11getEfuseMacEv
1074429508 00000013 T _ZN8EspClass11getFreeHeapEv
1074429576 00000026 T _ZN8EspClass13partitionReadEPK15esp_partition_tjPjj
1074429548 00000026 T _ZN8EspClass14partitionWriteEPK15esp_partition_tjPjj
1074429524 00000021 T _ZN8EspClass19partitionEraseRangeEPK15esp_partition_tjj
1074429496 00000009 T _ZN8EspClass7restartEv
1074842532 00000015 T _ZN9__gnu_cxx12__atomic_addEPVii
1074839156 00000060 W _ZN9__gnu_cxx13__scoped_lockD1Ev
1074839156 00000060 W _ZN9__gnu_cxx13__scoped_lockD2Ev
1074842340 00000190 T _ZN9__gnu_cxx18__exchange_and_addEPVii
1074839080 00000020 W _ZN9__gnu_cxx24__concurrence_lock_errorD0Ev
1074839040 00000018 W _ZN9__gnu_cxx24__concurrence_lock_errorD1Ev
1074839040 00000018 W _ZN9__gnu_cxx24__concurrence_lock_errorD2Ev
1074839100 00000020 W _ZN9__gnu_cxx26__concurrence_unlock_errorD0Ev
1074839060 00000018 W _ZN9__gnu_cxx26__concurrence_unlock_errorD1Ev
1074839060 00000018 W _ZN9__gnu_cxx26__concurrence_unlock_errorD2Ev
1074839120 00000035 W _ZN9__gnu_cxx7__mutex4lockEv
1074866264 00000082 T _ZN9ESP32Time13getTimeStructEv
1074866220 00000044 T _ZN9ESP32Time7setTimeEmi
1074866348 00000021 T _ZN9ESP32Time8getEpochEv
1074987548 00000007 T _ZN9ESP32TimeC1El
1074987548 00000007 T _ZN9ESP32TimeC2El
1074866192 00000026 T _ZN9INA219_WE11getOverflowEv
1074865832 00000094 T _ZN9INA219_WE12readRegisterEh
1074866068 00000124 T _ZN9INA219_WE13getCurrent_mAEv
1074866016 00000050 T _ZN9INA219_WE15getBusVoltage_VEv
1074865928 00000086 T _ZN9INA219_WE18getShuntVoltage_mVEv
1074979140 00000108 T _ZN9IPAddress10fromStringEPKc
1074430968 00000012 T _ZN9IPAddressC1Ej
1074430952 00000014 T _ZN9IPAddressC1Ev
1074430968 00000012 T _ZN9IPAddressC2Ej
1074430952 00000014 T _ZN9IPAddressC2Ev
1074430936 00000015 W _ZN9IPAddressD0Ev
1074979132 00000005 W _ZN9IPAddressD1Ev
1074979132 00000005 W _ZN9IPAddressD2Ev
1074839316 00000012 T _Znaj
1074839272 00000017 T _ZnajRKSt9nothrow_t
1074843228 00000032 T _ZNK10__cxxabiv117__class_type_info10__do_catchEPKSt9type_infoPPvj
1074843196 00000029 T _ZNK10__cxxabiv117__class_type_info11__do_upcastEPKS0_PKvRNS0_15__upcast_resultE
1074986560 00000050 T _ZNK10__cxxabiv117__class_type_info11__do_upcastEPKS0_PPv
1074843140 00000054 T _ZNK10__cxxabiv117__class_type_info12__do_dyncastEiNS0_10__sub_kindEPKS0_PKvS3_S5_RNS0_16__dyncast_resultE
1074986612 00000017 T _ZNK10__cxxabiv117__class_type_info20__do_find_public_srcEiPKvPKS0_S2_
1074842024 00000038 T _ZNK10__cxxabiv120__si_class_type_info11__do_upcastEPKNS_17__class_type_infoEPKvRNS1_15__upcast_resultE
1074841884 00000140 T _ZNK10__cxxabiv120__si_class_type_info12__do_dyncastEiNS_17__class_type_info10__sub_kindEPKS1_PKvS4_S6_RNS1_16__dyncast_resultE
1074841840 00000044 T _ZNK10__cxxabiv120__si_class_type_info20__do_find_public_srcEiPKvPKNS_17__class_type_infoES2_
1074418456 00000045 W _ZNK11ArduinoJson8V741PB2210JsonObjectixI6StringLi0EEENS0_6detail11MemberProxyIS1_NS4_13StringAdapterINS4_11conditionalIXsrNS4_15IsStringLiteralIT_EE5valueES9_NS4_9remove_cvINS4_16remove_referenceIS9_E4typeEE4typeEE4typeEvE13AdaptedStringEEERKS9_
1074335216 00000035 t _ZNK11ArduinoJson8V741PB2210JsonObjectixIPKcLi0EEENS0_6detail11MemberProxyIS1_NS5_13StringAdapterINS5_11conditionalIXsrNS5_15IsStringLiteralIT_EE5valueESA_NS5_9remove_cvINS5_16remove_referenceISA_E4typeEE4typeEE4typeEvE13AdaptedStringEEERKSA_$isra$109
1074385276 00000035 t _ZNK11ArduinoJson8V741PB2210JsonObjectixIPKcLi0EEENS0_6detail11MemberProxyIS1_NS5_13StringAdapterINS5_11conditionalIXsrNS5_15IsStringLiteralIT_EE5valueESA_NS5_9remove_cvINS5_16remove_referenceISA_E4typeEE4typeEE4typeEvE13AdaptedStringEEERKSA_$isra$42
1074327256 00000035 t _ZNK11ArduinoJson8V741PB2210JsonObjectixIPKcLi0EEENS0_6detail11MemberProxyIS1_NS5_13StringAdapterINS5_11conditionalIXsrNS5_15IsStringLiteralIT_EE5valueESA_NS5_9remove_cvINS5_16remove_referenceISA_E4typeEE4typeEE4typeEvE13AdaptedStringEEERKSA_$isra$63
1074357028 00000187 W _ZNK11ArduinoJson8V741PB226detail10ObjectData7findKeyINS1_9RamStringEEENS1_18CollectionIteratorET_PKNS1_15ResourceManagerE
1074281260 00000155 W _ZNK11ArduinoJson8V741PB226detail10ObjectData9getMemberINS1_9RamStringEEEPNS1_11VariantDataET_PKNS1_15ResourceManagerE
1074977468 00000046 t _ZNK11ArduinoJson8V741PB226detail10StringPool3getINS1_9RamStringEEEPNS1_10StringNodeERKT_$isra$95
1074330944 00000186 W _ZNK11ArduinoJson8V741PB226detail11MemberProxyINS0_10JsonObjectENS1_9RamStringEE15getOrCreateDataEv
1074330896 00000048 W _ZNK11ArduinoJson8V741PB226detail11MemberProxyINS0_10JsonObjectENS1_9RamStringEE7getDataEv
1074281700 00000186 W _ZNK11ArduinoJson8V741PB226detail11MemberProxyINS0_11JsonVariantENS1_9RamStringEE15getOrCreateDataEv
1074282496 00000048 W _ZNK11ArduinoJson8V741PB226detail11MemberProxyINS0_11JsonVariantENS1_9RamStringEE7getDataEv
1074341588 00000068 W _ZNK11ArduinoJson8V741PB226detail11MemberProxyIRNS0_12JsonDocumentENS1_9RamStringEE15getOrCreateDataEv
1074342348 00000052 W _ZNK11ArduinoJson8V741PB226detail11MemberProxyIRNS0_12JsonDocumentENS1_9RamStringEE7getDataEv
1074402376 00000325 W _ZNK11ArduinoJson8V741PB226detail11VariantData10asIntegralIaEET_PKNS1_15ResourceManagerE
1074329664 00000260 W _ZNK11ArduinoJson8V741PB226detail11VariantData10asIntegralIhEET_PKNS1_15ResourceManagerE
1074872496 00000288 W _ZNK11ArduinoJson8V741PB226detail11VariantData10asIntegralIiEET_PKNS1_15ResourceManagerE
1074402848 00000248 W _ZNK11ArduinoJson8V741PB226detail11VariantData10asIntegralIjEET_PKNS1_15ResourceManagerE
1074412636 00000252 W _ZNK11ArduinoJson8V741PB226detail11VariantData10asIntegralImEET_PKNS1_15ResourceManagerE
1074871272 00000324 W _ZNK11ArduinoJson8V741PB226detail11VariantData10asIntegralIsEET_PKNS1_15ResourceManagerE
1074330148 00000264 W _ZNK11ArduinoJson8V741PB226detail11VariantData10asIntegralItEET_PKNS1_15ResourceManagerE
1074329336 00000026 W _ZNK11ArduinoJson8V741PB226detail11VariantData12getExtensionEPKNS1_15ResourceManagerE
1074283904 00000404 W _ZNK11ArduinoJson8V741PB226detail11VariantData6acceptINS1_14JsonSerializerINS1_6WriterI6StringvEEEEEENT_11result_typeERS9_PKNS1_15ResourceManagerE
1074344416 00000424 W _ZNK11ArduinoJson8V741PB226detail11VariantData6acceptINS1_14JsonSerializerINS1_6WriterIN2fs4FileEvEEEEEENT_11result_typeERSA_PKNS1_15ResourceManagerE
1074870112 00000243 W _ZNK11ArduinoJson8V741PB226detail11VariantData7asFloatIfEET_PKNS1_15ResourceManagerE
1074279048 00000091 W _ZNK11ArduinoJson8V741PB226detail11VariantData8asStringEv
1074329400 00000106 W _ZNK11ArduinoJson8V741PB226detail11VariantData9isIntegerIiEEbPKNS1_15ResourceManagerE
1074867496 00000033 t _ZNK11ArduinoJson8V741PB226detail14CollectionData14createIteratorEPKNS1_15ResourceManagerE$isra$47
1074329040 00000033 t _ZNK11ArduinoJson8V741PB226detail14CollectionData14createIteratorEPKNS1_15ResourceManagerE$isra$50
1074336556 00000033 t _ZNK11ArduinoJson8V741PB226detail14CollectionData14createIteratorEPKNS1_15ResourceManagerE$isra$72
1074399068 00000050 W _ZNK11ArduinoJson8V741PB226detail14CollectionData4sizeEPKNS1_15ResourceManagerE
1074279440 00000038 W _ZNK11ArduinoJson8V741PB226detail14MemoryPoolListINS1_15ResourceManager8SlotDataEE7getSlotEt
1074336836 00000142 W _ZNK11ArduinoJson8V741PB226detail14VariantRefBaseINS0_11JsonVariantEE2asIbEET_v
1074977708 00000024 W _ZNK11ArduinoJson8V741PB226detail14VariantRefBaseINS0_11JsonVariantEE2asINS0_10JsonObjectEEET_v
1074340632 00000016 W _ZNK11ArduinoJson8V741PB226detail14VariantRefBaseINS1_11MemberProxyINS0_10JsonObjectENS1_9RamStringEEEE18getOrCreateVariantEv
1074333000 00000092 W _ZNK11ArduinoJson8V741PB226detail14VariantRefBaseINS1_11MemberProxyINS0_10JsonObjectENS1_9RamStringEEEE2asI6StringEET_v
1074403116 00000146 W _ZNK11ArduinoJson8V741PB226detail14VariantRefBaseINS1_11MemberProxyINS0_10JsonObjectENS1_9RamStringEEEE2asIbEET_v
1074403288 00000024 W _ZNK11ArduinoJson8V741PB226detail14VariantRefBaseINS1_11MemberProxyINS0_10JsonObjectENS1_9RamStringEEEE2asIjEET_v
1074342168 00000028 W _ZNK11ArduinoJson8V741PB226detail14VariantRefBaseINS1_11MemberProxyINS0_10JsonObjectENS1_9RamStringEEEE2asINS0_9JsonArrayEEET_v
1074403096 00000017 W _ZNK11ArduinoJson8V741PB226detail14VariantRefBaseINS1_11MemberProxyINS0_10JsonObjectENS1_9RamStringEEEE2asIPKcEET_v
1074403264 00000024 W _ZNK11ArduinoJson8V741PB226detail14VariantRefBaseINS1_11MemberProxyINS0_10JsonObjectENS1_9RamStringEEEE2asItEET_v
1074341304 00000034 W _ZNK11ArduinoJson8V741PB226detail14VariantRefBaseINS1_11MemberProxyINS0_10JsonObjectENS1_9RamStringEEEE2toINS0_9JsonArrayELi0EEES9_v
1074375140 00000132 W _ZNK11ArduinoJson8V741PB226detail14VariantRefBaseINS1_11MemberProxyINS0_10JsonObjectENS1_9RamStringEEEE2toIS4_Li0EEES4_v
1074332928 00000072 W _ZNK11ArduinoJson8V741PB226detail14VariantRefBaseINS1_11MemberProxyINS0_10JsonObjectENS1_9RamStringEEEE3setI15StringSumHelperEEbRKT_
1074340648 00000081 W _ZNK11ArduinoJson8V741PB226detail14VariantRefBaseINS1_11MemberProxyINS0_10JsonObjectENS1_9RamStringEEEE3setI6StringEEbRKT_
1074341252 00000052 W _ZNK11ArduinoJson8V741PB226detail14VariantRefBaseINS1_11MemberProxyINS0_10JsonObjectENS1_9RamStringEEEE3setIA15_cEEbRKT_
1074418504 00000037 t _ZNK11ArduinoJson8V741PB226detail14VariantRefBaseINS1_11MemberProxyINS0_10JsonObjectENS1_9RamStringEEEE3setIbEEbRKT_$isra$101
1074402112 00000034 t _ZNK11ArduinoJson8V741PB226detail14VariantRefBaseINS1_11MemberProxyINS0_10JsonObjectENS1_9RamStringEEEE3setIjEEbRKT_$isra$210$constprop$228
1074402148 00000034 t _ZNK11ArduinoJson8V741PB226detail14VariantRefBaseINS1_11MemberProxyINS0_10JsonObjectENS1_9RamStringEEEE3setItEEbRKT_$isra$218$constprop$237
1074331180 00000048 t _ZNK11ArduinoJson8V741PB226detail14VariantRefBaseINS1_11MemberProxyINS0_10JsonObjectENS1_9RamStringEEEE5doSetINS0_9ConverterIA26_cvEESA_EEbRKT0_NS1_17integral_constantIbLb0EEE$isra$106
1074331132 00000048 t _ZNK11ArduinoJson8V741PB226detail14VariantRefBaseINS1_11MemberProxyINS0_10JsonObjectENS1_9RamStringEEEE5doSetINS0_9ConverterIA8_cvEESA_EEbRKT0_NS1_17integral_constantIbLb0EEE$isra$107
1074281992 00000016 W _ZNK11ArduinoJson8V741PB226detail14VariantRefBaseINS1_11MemberProxyINS0_11JsonVariantENS1_9RamStringEEEE18getOrCreateVariantEv
1074284616 00000092 W _ZNK11ArduinoJson8V741PB226detail14VariantRefBaseINS1_11MemberProxyINS0_11JsonVariantENS1_9RamStringEEEE2asI6StringEET_v
1074282544 00000162 W _ZNK11ArduinoJson8V741PB226detail14VariantRefBaseINS1_11MemberProxyINS0_11JsonVariantENS1_9RamStringEEEE2asIbEET_v
1074282008 00000094 t _ZNK11ArduinoJson8V741PB226detail14VariantRefBaseINS1_11MemberProxyINS0_11JsonVariantENS1_9RamStringEEEE5doSetINS0_9ConverterI6StringvEESA_EEbRKT0_NS1_17integral_constantIbLb0EEE$isra$105
1074341656 00000034 W _ZNK11ArduinoJson8V741PB226detail14VariantRefBaseINS1_11MemberProxyIRNS0_12JsonDocumentENS1_9RamStringEEEE2toINS0_10JsonObjectELi0EEESA_v
1074341692 00000034 W _ZNK11ArduinoJson8V741PB226detail14VariantRefBaseINS1_11MemberProxyIRNS0_12JsonDocumentENS1_9RamStringEEEE2toINS0_9JsonArrayELi0EEESA_v
1074329924 00000067 W _ZNK11ArduinoJson8V741PB226detail14VariantRefBaseINS1_12ElementProxyINS0_9JsonArrayEEEE2asIhEET_v
1074976108 00000014 t _ZNK11ArduinoJson8V741PB226detail7pgm_ptrIdEixEi$isra$44
1074335192 00000024 t _ZNK11ArduinoJson8V741PB226detail7pgm_ptrIdEixEi$isra$75
1074342240 00000106 W _ZNK11ArduinoJson8V741PB229JsonArray3addI15StringSumHelperEEbRKT_
1074338072 00000042 W _ZNK11ArduinoJson8V741PB229JsonArray3addINS0_10JsonObjectELi0EEET_v
1074336592 00000047 W _ZNK11ArduinoJson8V741PB229JsonArray5beginEv
1074987116 00000035 T _ZNK11AsyncClient10setNoDelayEb
1074987152 00000014 T _ZNK11AsyncClient16getRemoteAddressEv
1074987088 00000020 T _ZNK11AsyncClient5spaceEv
1074856700 00000017 T _ZNK11AsyncClient7canSendEv
1074856680 00000020 T _ZNK11AsyncClient8remoteIPEv
1074431072 00000063 T _ZNK11IPv6Address7printToER5Print
1074987720 00000035 T _ZNK11UpdateClass15_chkDataInBlockEPKhj
1074852176 00000022 T _ZNK11VFSFileImpl4nameEv
1074987056 00000007 T _ZNK11VFSFileImpl4pathEv
1074853860 00000032 T _ZNK11VFSFileImpl4sizeEv
1074853760 00000087 T _ZNK11VFSFileImpl8_getStatEv
1074852148 00000028 T _ZNK11VFSFileImpl8positionEv
1074842736 00000040 t _ZNK12_GLOBAL__N_121system_error_category7messageB5cxx11Ei
1074842620 00000008 t _ZNK12_GLOBAL__N_122generic_error_category4nameEv
1074842736 00000040 t _ZNK12_GLOBAL__N_122generic_error_category7messageB5cxx11Ei
1074976544 00000027 T _ZNK14AsyncWebSocket5countEv
1074286088 00000051 T _ZNK14AsyncWebSocket9canHandleEP21AsyncWebServerRequest
1074975984 00000007 W _ZNK15AsyncWebHandler23isRequestHandlerTrivialEv
1074975952 00000007 W _ZNK15AsyncWebHandler9canHandleEP21AsyncWebServerRequest
1074312048 00000016 W _ZNK17AsyncFileResponse12_sourceValidEv
1074977036 00000007 W _ZNK18AsyncBasicResponse12_sourceValidEv
1074980340 00000044 W _ZNK19CompressedEnumTableIN3nvs4Page10EntryStateELj2ELj126EE3getEjPS2_
1074977060 00000007 W _ZNK20AsyncProgmemResponse12_sourceValidEv
1074289104 00000042 T _ZNK20AsyncWebSocketClient7canSendEv
1074977044 00000007 W _ZNK21AsyncAbstractResponse12_sourceValidEv
1074323500 00000382 T _ZNK21AsyncStaticWebHandler8_getFileEP21AsyncWebServerRequest
1074323884 00000056 T _ZNK21AsyncStaticWebHandler9canHandleEP21AsyncWebServerRequest
1074304108 00000110 T _ZNK21AsyncWebServerRequest12authenticateEPKcS1_S1_b
1074304044 00000062 T _ZNK21AsyncWebServerRequest14methodToStringEv
1074976972 00000048 T _ZNK21AsyncWebServerRequest27isExpectedRequestedConnTypeE23RequestedConnectionTypeS0_S0_
1074303844 00000023 T _ZNK21AsyncWebServerRequest6headerEPKc
1074976940 00000008 T _ZNK21AsyncWebServerRequest6paramsEv
1074303808 00000034 T _ZNK21AsyncWebServerRequest8getParamEj
1074303696 00000110 T _ZNK21AsyncWebServerRequest9getHeaderEPKc
1074303588 00000106 T _ZNK21AsyncWebServerRequest9hasHeaderEPKc
1074303868 00000176 T _ZNK21AsyncWebServerRequest9urlDecodeERK6String
1074977124 00000007 T _ZNK22AsyncWebServerResponse12_sourceValidEv
1074977104 00000019 T _ZNK22AsyncWebServerResponse7_failedEv
1074977068 00000016 T _ZNK22AsyncWebServerResponse8_startedEv
1074977084 00000017 T _ZNK22AsyncWebServerResponse9_finishedEv
1074976320 00000007 W _ZNK22AsyncWebSocketResponse12_sourceValidEv
1074977224 00000017 W _ZNK23AsyncCallbackWebHandler23isRequestHandlerTrivialEv
1074320516 00000486 T _ZNK23AsyncCallbackWebHandler9canHandleEP21AsyncWebServerRequest
1074851608 00000028 T _ZNK2fs4File4nameEv
1074851580 00000028 T _ZNK2fs4File4sizeEv
1074986948 00000024 T _ZNK2fs4FilecvbEv
1074472692 00000044 T _ZNK3nvs4Item14calculateCrc32Ev
1074472736 00000040 T _ZNK3nvs4Item26calculateCrc32WithoutValueEv
1074468492 00000031 T _ZNK3nvs4Page12getSeqNumberERj
1074468656 00000040 T _ZNK3nvs4Page18getVarDataTailroomEv
1074980300 00000040 T _ZNK3nvs4Page9readEntryEjRNS_4ItemE
1074301960 00000086 W _ZNK6String10startsWithEPKc
1074434796 00000040 T _ZNK6String10startsWithERKS_
1074434712 00000084 T _ZNK6String10startsWithERKS_j
1074435200 00000028 T _ZNK6String11lastIndexOfEc
1074435104 00000093 T _ZNK6String11lastIndexOfEcj
1074435328 00000037 T _ZNK6String11lastIndexOfERKS_
1074435228 00000100 T _ZNK6String11lastIndexOfERKS_j
1074434616 00000093 T _ZNK6String16equalsIgnoreCaseERKS_
1074979328 00000021 W _ZNK6String3lenEv
1074436148 00000030 T _ZNK6String5toIntEv
1074435012 00000017 T _ZNK6String6charAtEj
1074434508 00000086 T _ZNK6String6equalsEPKc
1074434460 00000045 T _ZNK6String6equalsERKS_
1074976424 00000030 W _ZNK6String6lengthEv
1074435084 00000020 T _ZNK6String7indexOfEc
1074435032 00000049 T _ZNK6String7indexOfEcj
1074312124 00000086 W _ZNK6String8endsWithEPKc
1074434836 00000086 T _ZNK6String8endsWithERKS_
1074434360 00000100 T _ZNK6String9compareToERKS_
1074302048 00000033 W _ZNK6String9substringEj
1074435368 00000055 T _ZNK6String9substringEjj
1074434968 00000042 T _ZNK6StringixEj
1074434596 00000018 T _ZNK6StringltERKS_
1074839024 00000008 W _ZNK9__gnu_cxx24__concurrence_lock_error4whatEv
1074839032 00000008 W _ZNK9__gnu_cxx26__concurrence_unlock_error4whatEv
1074430872 00000064 T _ZNK9IPAddress7printToER5Print
1074430980 00000070 T _ZNK9IPAddress8toStringEv
1074986648 00000007 T _ZNKSt11logic_error4whatEv
1074986656 00000007 T _ZNKSt13runtime_error4whatEv
1074977208 00000016 t _ZNKSt14default_deleteI15AsyncWebHandlerEclEPS0_$isra$53
1074842548 00000008 T _ZNKSt17bad_function_call4whatEv
1074842680 00000054 T _ZNKSt3_V214error_category10_M_messageB5cxx11Ei
1074986480 00000044 T _ZNKSt3_V214error_category10equivalentEiRKSt15error_condition
1074986524 00000028 T _ZNKSt3_V214error_category10equivalentERKSt10error_codei
1074986468 00000011 T _ZNKSt3_V214error_category23default_error_conditionEi
1074316600 00000040 W _ZNKSt6vectorIhSaIhEE12_M_check_lenEjPKc
1074371420 00000054 W _ZNKSt6vectorIN3JCA3FNC11ClockValues10ClockPointESaIS3_EE12_M_check_lenEjPKc
1074319172 00000028 W _ZNKSt8functionIFbP21AsyncWebServerRequestEEclES1_
1074881108 00000031 W _ZNKSt8functionIFvjjEEclEjj
1074857180 00000031 W _ZNKSt8functionIFvPvP11AsyncClientEEclES0_S2_
1074399120 00000027 W _ZNKSt8functionIFvRN11ArduinoJson8V741PB2211JsonVariantES3_EEclES3_S3_
1074298408 00000023 W _ZNKSt8functionIFvvEEclEv
1074843012 00000008 T _ZNKSt9bad_alloc4whatEv
1074986640 00000007 T _ZNKSt9type_info14__is_pointer_pEv
1074986640 00000007 T _ZNKSt9type_info15__is_function_pEv
1074843100 00000040 t _ZNKSt9type_infoeqERKS_$isra$0
1074841800 00000040 t _ZNKSt9type_infoeqERKS_$isra$0
1074843720 00000060 W _ZNSs12_S_constructIPKcEEPcT_S3_RKSaIcESt20forward_iterator_tag
1074843536 00000018 W _ZNSs13_S_copy_charsEPcPKcS1_
1074843656 00000010 W _ZNSs4_Rep10_M_destroyERKSaIcE
1074843668 00000031 W _ZNSs4_Rep10_M_disposeERKSaIcE
1073523420 00000016 V _ZNSs4_Rep20_S_empty_rep_storageE
1074843556 00000022 W _ZNSs4_Rep26_M_set_length_and_sharableEj
1074843580 00000074 W _ZNSs4_Rep9_S_createEjjRKSaIcE
1074843504 00000031 W _ZNSs7_M_copyEPcPKcj
1074843816 00000021 W _ZNSsC1EPKcjRKSaIcE
1074843780 00000034 W _ZNSsC1EPKcRKSaIcE
1074843816 00000021 W _ZNSsC2EPKcjRKSaIcE
1074843780 00000034 W _ZNSsC2EPKcRKSaIcE
1074843700 00000018 W _ZNSsD1Ev
1074843700 00000018 W _ZNSsD2Ev
1074305516 00000066 W _ZNSt10_HashtableIPKcSt4pairIKS1_6StringESaIS5_ENSt8__detail10_Select1stESt8equal_toIS1_ESt4hashIS1_ENS7_18_Mod_range_hashingENS7_20_Default_ranged_hashENS7_20_Prime_rehash_policyENS7_17_Hashtable_traitsILb0ELb0ELb1EEEED1Ev
1074305516 00000066 W _ZNSt10_HashtableIPKcSt4pairIKS1_6StringESaIS5_ENSt8__detail10_Select1stESt8equal_toIS1_ESt4hashIS1_ENS7_18_Mod_range_hashingENS7_20_Default_ranged_hashENS7_20_Prime_rehash_policyENS7_17_Hashtable_traitsILb0ELb0ELb1EEEED2Ev
1074288852 00000010 W _ZNSt10lock_guardISt5mutexED1Ev
1074288852 00000010 W _ZNSt10lock_guardISt5mutexED2Ev
1074316640 00000024 W _ZNSt11__copy_moveILb1ELb1ESt26random_access_iterator_tagE8__copy_mIhEEPT_PKS3_S6_S4_
1074288956 00000042 W _ZNSt11_Deque_baseI21AsyncWebSocketControlSaIS0_EED1Ev
1074288956 00000042 W _ZNSt11_Deque_baseI21AsyncWebSocketControlSaIS0_EED2Ev
1074289000 00000042 W _ZNSt11_Deque_baseI21AsyncWebSocketMessageSaIS0_EED1Ev
1074289000 00000042 W _ZNSt11_Deque_baseI21AsyncWebSocketMessageSaIS0_EED2Ev
1074843840 00000021 W _ZNSt11char_traitsIcE4copyEPcPKcj
1074844048 00000046 T _ZNSt11logic_errorC1EPKc
1074844048 00000046 T _ZNSt11logic_errorC2EPKc
1074843384 00000018 T _ZNSt11logic_errorD0Ev
1074843316 00000022 T _ZNSt11logic_errorD1Ev
1074843316 00000022 T _ZNSt11logic_errorD2Ev
1074288920 00000035 W _ZNSt11unique_lockISt5mutexE6unlockEv
1074844116 00000019 T _ZNSt12__cow_stringC1EPKcj
1074843444 00000014 T _ZNSt12__cow_stringC1ERKNSt7__cxx1112basic_stringIcSt11char_traitsIcESaIcEEE
1074844116 00000019 T _ZNSt12__cow_stringC2EPKcj
1074843444 00000014 T _ZNSt12__cow_stringC2ERKNSt7__cxx1112basic_stringIcSt11char_traitsIcESaIcEEE
1074286556 00000026 W _ZNSt12__shared_ptrISt6vectorIhSaIhEELN9__gnu_cxx12_Lock_policyE1EEC1ERKS5_
1074286556 00000026 W _ZNSt12__shared_ptrISt6vectorIhSaIhEELN9__gnu_cxx12_Lock_policyE1EEC2ERKS5_
1074291980 00000022 W _ZNSt12_Destroy_auxILb0EE9__destroyIP21AsyncWebSocketControlEEvT_S4_
1074292124 00000022 W _ZNSt12_Destroy_auxILb0EE9__destroyIP21AsyncWebSocketMessageEEvT_S4_
1074305720 00000022 W _ZNSt12_Destroy_auxILb0EE9__destroyIP6StringEEvT_S4_
1074312084 00000015 t _ZNSt12_Vector_baseIhSaIhEE13_M_deallocateEPhj$isra$46
1074371236 00000015 t _ZNSt12_Vector_baseIN3JCA3FNC11ClockValues10ClockPointESaIS3_EE13_M_deallocateEPS3_j$isra$76
1074335252 00000015 t _ZNSt12_Vector_baseIN3JCA3IOT14FuncLinkPair_TESaIS2_EE13_M_deallocateEPS2_j$isra$159
1074844096 00000020 T _ZNSt12length_errorC1EPKc
1074844096 00000020 T _ZNSt12length_errorC2EPKc
1074843404 00000018 T _ZNSt12length_errorD0Ev
1074843340 00000018 T _ZNSt12length_errorD1Ev
1074843340 00000018 T _ZNSt12length_errorD2Ev
1074842660 00000018 T _ZNSt12system_errorD0Ev
1074842640 00000018 T _ZNSt12system_errorD1Ev
1074842640 00000018 T _ZNSt12system_errorD2Ev
1074843460 00000042 T _ZNSt13runtime_errorC1ERKNSt7__cxx1112basic_stringIcSt11char_traitsIcESaIcEEE
1074843460 00000042 T _ZNSt13runtime_errorC2ERKNSt7__cxx1112basic_stringIcSt11char_traitsIcESaIcEEE
1074843424 00000018 T _ZNSt13runtime_errorD0Ev
1074843360 00000022 T _ZNSt13runtime_errorD1Ev
1074843360 00000022 T _ZNSt13runtime_errorD2Ev
1074291628 00000118 W _ZNSt14__shared_countILN9__gnu_cxx12_Lock_policyE1EEC1ISt6vectorIhSaIhEESaIS6_EJRjEEERPT_St20_Sp_alloc_shared_tagIT0_EDpOT1_
1074291628 00000118 W _ZNSt14__shared_countILN9__gnu_cxx12_Lock_policyE1EEC2ISt6vectorIhSaIhEESaIS6_EJRjEEERPT_St20_Sp_alloc_shared_tagIT0_EDpOT1_
1074288792 00000058 W _ZNSt14__shared_countILN9__gnu_cxx12_Lock_policyE1EED1Ev
1074288792 00000058 W _ZNSt14__shared_countILN9__gnu_cxx12_Lock_policyE1EED2Ev
1074976044 00000021 W _ZNSt14_Function_base13_Base_managerIPF6StringRKS1_EE10_M_managerERSt9_Any_dataRKS7_St18_Manager_operation
1074977880 00000021 W _ZNSt14_Function_base13_Base_managerIPFbN11ArduinoJson8V741PB2210JsonObjectES3_RSt6vectorIPN3JCA3FNC10FuncParentESaIS8_EESt3mapI6StringPvSt4lessISD_ESaISt4pairIKSD_SE_EEEEE10_M_managerERSt9_Any_dataRKSP_St18_Manager_operation
1074976084 00000021 W _ZNSt14_Function_base13_Base_managerIPFvRN11ArduinoJson8V741PB2211JsonVariantES4_EE10_M_managerERSt9_Any_dataRKS8_St18_Manager_operation
1074976004 00000021 W _ZNSt14_Function_base13_Base_managerIPFvvEE10_M_managerERSt9_Any_dataRKS4_St18_Manager_operation
1074423396 00000060 W _ZNSt14_Function_base13_Base_managerISt5_BindIFMN3JCA3FNC10ServerLinkEFvvEPS4_EEE10_M_managerERSt9_Any_dataRKSB_St18_Manager_operation
1074381440 00000060 W _ZNSt14_Function_base13_Base_managerISt5_BindIFMN3JCA3FNC6FeederEFvvEPS4_EEE10_M_managerERSt9_Any_dataRKSB_St18_Manager_operation
1074385312 00000063 W _ZNSt14_Function_base13_Base_managerISt5_BindIFMN3JCA3FNC8LedStripEFvvEPS4_EEE10_M_managerERSt9_Any_dataRKSB_St18_Manager_operation
1074353804 00000063 W _ZNSt14_Function_base13_Base_managerISt5_BindIFMN3JCA3FNC9AcDimmersEFvvEPS4_EEE10_M_managerERSt9_Any_dataRKSB_St18_Manager_operation
1074977196 00000012 t _ZNSt14_Function_base13_Base_managerIZN14AsyncWebServerC4EtEUlPvP11AsyncClientE_E10_M_managerERSt9_Any_dataRKS7_St18_Manager_operation
1074298484 00000111 t _ZNSt14_Function_base13_Base_managerIZN20AsyncMiddlewareChain9_runChainEP21AsyncWebServerRequestSt8functionIFvvEEEUlvE_E10_M_managerERSt9_Any_dataRKS9_St18_Manager_operation
1074976336 00000012 t _ZNSt14_Function_base13_Base_managerIZN20AsyncWebSocketClientC4EP21AsyncWebServerRequestP14AsyncWebSocketEUlPvP11AsyncClientaE_E10_M_managerERSt9_Any_dataRKSB_St18_Manager_operation
1074976360 00000012 t _ZNSt14_Function_base13_Base_managerIZN20AsyncWebSocketClientC4EP21AsyncWebServerRequestP14AsyncWebSocketEUlPvP11AsyncClientE1_E10_M_managerERSt9_Any_dataRKSB_St18_Manager_operation
1074976396 00000012 t _ZNSt14_Function_base13_Base_managerIZN20AsyncWebSocketClientC4EP21AsyncWebServerRequestP14AsyncWebSocketEUlPvP11AsyncClientE4_E10_M_managerERSt9_Any_dataRKSB_St18_Manager_operation
1074976372 00000012 t _ZNSt14_Function_base13_Base_managerIZN20AsyncWebSocketClientC4EP21AsyncWebServerRequestP14AsyncWebSocketEUlPvP11AsyncClientjE2_E10_M_managerERSt9_Any_dataRKSB_St18_Manager_operation
1074976348 00000012 t _ZNSt14_Function_base13_Base_managerIZN20AsyncWebSocketClientC4EP21AsyncWebServerRequestP14AsyncWebSocketEUlPvP11AsyncClientjjE0_E10_M_managerERSt9_Any_dataRKSB_St18_Manager_operation
1074976384 00000012 t _ZNSt14_Function_base13_Base_managerIZN20AsyncWebSocketClientC4EP21AsyncWebServerRequestP14AsyncWebSocketEUlPvP11AsyncClientS6_jE3_E10_M_managerERSt9_Any_dataRKSB_St18_Manager_operation
1074976748 00000021 t _ZNSt14_Function_base13_Base_managerIZN21AsyncWebServerRequest10_parseLineEvEUlvE_E10_M_managerERSt9_Any_dataRKS4_St18_Manager_operation
1074976700 00000021 t _ZNSt14_Function_base13_Base_managerIZN21AsyncWebServerRequest7_onDataEPvjEUlvE_E10_M_managerERSt9_Any_dataRKS5_St18_Manager_operation
1074976604 00000012 t _ZNSt14_Function_base13_Base_managerIZN21AsyncWebServerRequestC4EP14AsyncWebServerP11AsyncClientEUlPvS5_aE_E10_M_managerERSt9_Any_dataRKS9_St18_Manager_operation
1074976628 00000012 t _ZNSt14_Function_base13_Base_managerIZN21AsyncWebServerRequestC4EP14AsyncWebServerP11AsyncClientEUlPvS5_E1_E10_M_managerERSt9_Any_dataRKS9_St18_Manager_operation
1074976664 00000012 t _ZNSt14_Function_base13_Base_managerIZN21AsyncWebServerRequestC4EP14AsyncWebServerP11AsyncClientEUlPvS5_E4_E10_M_managerERSt9_Any_dataRKS9_St18_Manager_operation
1074976640 00000012 t _ZNSt14_Function_base13_Base_managerIZN21AsyncWebServerRequestC4EP14AsyncWebServerP11AsyncClientEUlPvS5_jE2_E10_M_managerERSt9_Any_dataRKS9_St18_Manager_operation
1074976616 00000012 t _ZNSt14_Function_base13_Base_managerIZN21AsyncWebServerRequestC4EP14AsyncWebServerP11AsyncClientEUlPvS5_jjE0_E10_M_managerERSt9_Any_dataRKS9_St18_Manager_operation
1074976652 00000012 t _ZNSt14_Function_base13_Base_managerIZN21AsyncWebServerRequestC4EP14AsyncWebServerP11AsyncClientEUlPvS5_S6_jE3_E10_M_managerERSt9_Any_dataRKS9_St18_Manager_operation
1074977936 00000021 t _ZNSt14_Function_base13_Base_managerIZN3JCA3FNC11ClockValuesC4Eh6StringEUlvE_E10_M_managerERSt9_Any_dataRKS7_St18_Manager_operation
1074979016 00000021 t _ZNSt14_Function_base13_Base_managerIZN3JCA3IOT6Server12onWebHomeGetEP21AsyncWebServerRequestEUlRK6StringE_E10_M_managerERSt9_Any_dataRKSB_St18_Manager_operation
1074979040 00000021 t _ZNSt14_Function_base13_Base_managerIZN3JCA3IOT6Server14onWebConfigGetEP21AsyncWebServerRequestEUlRK6StringE_E10_M_managerERSt9_Any_dataRKSB_St18_Manager_operation
1074978992 00000021 t _ZNSt14_Function_base13_Base_managerIZN3JCA3IOT6Server14onWebSystemGetEP21AsyncWebServerRequestEUlRK6StringE_E10_M_managerERSt9_Any_dataRKSB_St18_Manager_operation
1074978968 00000021 t _ZNSt14_Function_base13_Base_managerIZN3JCA3IOT6Server15onWebConnectGetEP21AsyncWebServerRequestEUlRK6StringE_E10_M_managerERSt9_Any_dataRKSB_St18_Manager_operation
1074978248 00000021 t _ZNSt14_Function_base13_Base_managerIZN3JCA3IOT6Server4initEvEUl14AsyncUDPPacketE_E10_M_managerERSt9_Any_dataRKS7_St18_Manager_operation
1074978272 00000021 t _ZNSt14_Function_base13_Base_managerIZN3JCA3IOT6Server4initEvEUlP14AsyncWebSocketP20AsyncWebSocketClient12AwsEventTypePvPhjE0_E10_M_managerERSt9_Any_dataRKSD_St18_Manager_operation
1074978608 00000021 t _ZNSt14_Function_base13_Base_managerIZN3JCA3IOT6Server4initEvEUlP21AsyncWebServerRequest6StringjPhjbE14_E10_M_managerERSt9_Any_dataRKSA_St18_Manager_operation
1074978392 00000021 t _ZNSt14_Function_base13_Base_managerIZN3JCA3IOT6Server4initEvEUlP21AsyncWebServerRequest6StringjPhjbE5_E10_M_managerERSt9_Any_dataRKSA_St18_Manager_operation
1074978440 00000021 t _ZNSt14_Function_base13_Base_managerIZN3JCA3IOT6Server4initEvEUlP21AsyncWebServerRequest6StringjPhjbE7_E10_M_managerERSt9_Any_dataRKSA_St18_Manager_operation
1074978296 00000021 t _ZNSt14_Function_base13_Base_managerIZN3JCA3IOT6Server4initEvEUlP21AsyncWebServerRequestE1_E10_M_managerERSt9_Any_dataRKS8_St18_Manager_operation
1074978512 00000021 t _ZNSt14_Function_base13_Base_managerIZN3JCA3IOT6Server4initEvEUlP21AsyncWebServerRequestE10_E10_M_managerERSt9_Any_dataRKS8_St18_Manager_operation
1074978536 00000021 t _ZNSt14_Function_base13_Base_managerIZN3JCA3IOT6Server4initEvEUlP21AsyncWebServerRequestE11_E10_M_managerERSt9_Any_dataRKS8_St18_Manager_operation
1074978560 00000021 t _ZNSt14_Function_base13_Base_managerIZN3JCA3IOT6Server4initEvEUlP21AsyncWebServerRequestE12_E10_M_managerERSt9_Any_dataRKS8_St18_Manager_operation
1074978584 00000021 t _ZNSt14_Function_base13_Base_managerIZN3JCA3IOT6Server4initEvEUlP21AsyncWebServerRequestE13_E10_M_managerERSt9_Any_dataRKS8_St18_Manager_operation
1074978656 00000012 t _ZNSt14_Function_base13_Base_managerIZN3JCA3IOT6Server4initEvEUlP21AsyncWebServerRequestE16_E10_M_managerERSt9_Any_dataRKS8_St18_Manager_operation
1074978320 00000021 t _ZNSt14_Function_base13_Base_managerIZN3JCA3IOT6Server4initEvEUlP21AsyncWebServerRequestE2_E10_M_managerERSt9_Any_dataRKS8_St18_Manager_operation
1074978344 00000021 t _ZNSt14_Function_base13_Base_managerIZN3JCA3IOT6Server4initEvEUlP21AsyncWebServerRequestE3_E10_M_managerERSt9_Any_dataRKS8_St18_Manager_operation
1074978368 00000021 t _ZNSt14_Function_base13_Base_managerIZN3JCA3IOT6Server4initEvEUlP21AsyncWebServerRequestE4_E10_M_managerERSt9_Any_dataRKS8_St18_Manager_operation
1074978416 00000021 t _ZNSt14_Function_base13_Base_managerIZN3JCA3IOT6Server4initEvEUlP21AsyncWebServerRequestE6_E10_M_managerERSt9_Any_dataRKS8_St18_Manager_operation
1074978464 00000021 t _ZNSt14_Function_base13_Base_managerIZN3JCA3IOT6Server4initEvEUlP21AsyncWebServerRequestE8_E10_M_managerERSt9_Any_dataRKS8_St18_Manager_operation
1074978488 00000021 t _ZNSt14_Function_base13_Base_managerIZN3JCA3IOT6Server4initEvEUlP21AsyncWebServerRequestE9_E10_M_managerERSt9_Any_dataRKS8_St18_Manager_operation
1074978632 00000021 t _ZNSt14_Function_base13_Base_managerIZN3JCA3IOT6Server4initEvEUlP21AsyncWebServerRequestPhjjjE15_E10_M_managerERSt9_Any_dataRKS9_St18_Manager_operation
1074976724 00000021 t _ZNSt14_Function_base13_Base_managerIZZN21AsyncWebServerRequest10_parseLineEvENKUlvE_clEvEUlvE_E10_M_managerERSt9_Any_dataRKS5_St18_Manager_operation
1074976676 00000021 t _ZNSt14_Function_base13_Base_managerIZZN21AsyncWebServerRequest7_onDataEPvjENKUlvE_clEvEUlvE_E10_M_managerERSt9_Any_dataRKS6_St18_Manager_operation
1074976124 00000018 W _ZNSt14_Function_baseD1Ev
1074976124 00000018 W _ZNSt14_Function_baseD2Ev
1074305768 00000015 W _ZNSt15__allocated_ptrISaISt10_List_nodeI17AsyncWebParameterEEED1Ev
1074305768 00000015 W _ZNSt15__allocated_ptrISaISt10_List_nodeI17AsyncWebParameterEEED2Ev
1074853972 00000015 W _ZNSt15__allocated_ptrISaISt23_Sp_counted_ptr_inplaceI11VFSFileImplSaIS1_ELN9__gnu_cxx12_Lock_policyE1EEEED1Ev
1074853972 00000015 W _ZNSt15__allocated_ptrISaISt23_Sp_counted_ptr_inplaceI11VFSFileImplSaIS1_ELN9__gnu_cxx12_Lock_policyE1EEEED2Ev
1074976572 00000021 W _ZNSt15_Deque_iteratorI21AsyncWebSocketMessageRS0_PS0_EC1ERKS3_
1074976572 00000021 W _ZNSt15_Deque_iteratorI21AsyncWebSocketMessageRS0_PS0_EC2ERKS3_
1074334760 00000010 W _ZNSt15_Sp_counted_ptrIP12LittleFSImplLN9__gnu_cxx12_Lock_policyE1EE10_M_destroyEv
1074977444 00000016 W _ZNSt15_Sp_counted_ptrIP12LittleFSImplLN9__gnu_cxx12_Lock_policyE1EE10_M_disposeEv
1074977460 00000007 W _ZNSt15_Sp_counted_ptrIP12LittleFSImplLN9__gnu_cxx12_Lock_policyE1EE14_M_get_deleterERKSt9type_info
1074334740 00000020 W _ZNSt15_Sp_counted_ptrIP12LittleFSImplLN9__gnu_cxx12_Lock_policyE1EED0Ev
1074334720 00000018 W _ZNSt15_Sp_counted_ptrIP12LittleFSImplLN9__gnu_cxx12_Lock_policyE1EED1Ev
1074334720 00000018 W _ZNSt15_Sp_counted_ptrIP12LittleFSImplLN9__gnu_cxx12_Lock_policyE1EED2Ev
1074976408 00000014 W _ZNSt16_Sp_counted_baseILN9__gnu_cxx12_Lock_policyE1EE10_M_destroyEv
1074305584 00000054 W _ZNSt16_Sp_counted_baseILN9__gnu_cxx12_Lock_policyE1EE10_M_releaseEv
1074853952 00000020 W _ZNSt16_Sp_counted_baseILN9__gnu_cxx12_Lock_policyE1EED0Ev
1074853892 00000018 W _ZNSt16_Sp_counted_baseILN9__gnu_cxx12_Lock_policyE1EED1Ev
1074853892 00000018 W _ZNSt16_Sp_counted_baseILN9__gnu_cxx12_Lock_policyE1EED2Ev
1074976028 00000014 W _ZNSt17_Function_handlerIF6StringRKS0_EPS3_E9_M_invokeERKSt9_Any_dataS2_
1074416184 00000014 t _ZNSt17_Function_handlerIF6StringRKS0_EZN3JCA3IOT6Server12onWebHomeGetEP21AsyncWebServerRequestEUlS2_E_E9_M_invokeERKSt9_Any_dataS2_
1074416200 00000014 t _ZNSt17_Function_handlerIF6StringRKS0_EZN3JCA3IOT6Server14onWebConfigGetEP21AsyncWebServerRequestEUlS2_E_E9_M_invokeERKSt9_Any_dataS2_
1074416580 00000014 t _ZNSt17_Function_handlerIF6StringRKS0_EZN3JCA3IOT6Server14onWebSystemGetEP21AsyncWebServerRequestEUlS2_E_E9_M_invokeERKSt9_Any_dataS2_
1074416964 00000014 t _ZNSt17_Function_handlerIF6StringRKS0_EZN3JCA3IOT6Server15onWebConnectGetEP21AsyncWebServerRequestEUlS2_E_E9_M_invokeERKSt9_Any_dataS2_
1074357864 00000108 W _ZNSt17_Function_handlerIFbN11ArduinoJson8V741PB2210JsonObjectES2_RSt6vectorIPN3JCA3FNC10FuncParentESaIS7_EESt3mapI6StringPvSt4lessISC_ESaISt4pairIKSC_SD_EEEEPSL_E9_M_invokeERKSt9_Any_dataOS2_SR_SA_OSK_
1074400432 00000026 t _ZNSt17_Function_handlerIFvP14AsyncWebSocketP20AsyncWebSocketClient12AwsEventTypePvPhjEZN3JCA3IOT6Server4initEvEUlS1_S3_S4_S5_S6_jE0_E9_M_invokeERKSt9_Any_dataOS1_OS3_OS4_OS5_OS6_Oj
1074400460 00000015 t _ZNSt17_Function_handlerIFvP21AsyncWebServerRequestEZN3JCA3IOT6Server4initEvEUlS1_E1_E9_M_invokeERKSt9_Any_dataOS1_
1074400876 00000015 t _ZNSt17_Function_handlerIFvP21AsyncWebServerRequestEZN3JCA3IOT6Server4initEvEUlS1_E10_E9_M_invokeERKSt9_Any_dataOS1_
1074400892 00000015 t _ZNSt17_Function_handlerIFvP21AsyncWebServerRequestEZN3JCA3IOT6Server4initEvEUlS1_E11_E9_M_invokeERKSt9_Any_dataOS1_
1074401072 00000040 t _ZNSt17_Function_handlerIFvP21AsyncWebServerRequestEZN3JCA3IOT6Server4initEvEUlS1_E12_E9_M_invokeERKSt9_Any_dataOS1_
1074404852 00000591 t _ZNSt17_Function_handlerIFvP21AsyncWebServerRequestEZN3JCA3IOT6Server4initEvEUlS1_E13_E9_M_invokeERKSt9_Any_dataOS1_
1074401056 00000016 t _ZNSt17_Function_handlerIFvP21AsyncWebServerRequestEZN3JCA3IOT6Server4initEvEUlS1_E16_E9_M_invokeERKSt9_Any_dataOS1_
1074400476 00000015 t _ZNSt17_Function_handlerIFvP21AsyncWebServerRequestEZN3JCA3IOT6Server4initEvEUlS1_E2_E9_M_invokeERKSt9_Any_dataOS1_
1074400492 00000015 t _ZNSt17_Function_handlerIFvP21AsyncWebServerRequestEZN3JCA3IOT6Server4initEvEUlS1_E3_E9_M_invokeERKSt9_Any_dataOS1_
1074401244 00000016 t _ZNSt17_Function_handlerIFvP21AsyncWebServerRequestEZN3JCA3IOT6Server4initEvEUlS1_E4_E9_M_invokeERKSt9_Any_dataOS1_
1074400668 00000015 t _ZNSt17_Function_handlerIFvP21AsyncWebServerRequestEZN3JCA3IOT6Server4initEvEUlS1_E6_E9_M_invokeERKSt9_Any_dataOS1_
1074400844 00000015 t _ZNSt17_Function_handlerIFvP21AsyncWebServerRequestEZN3JCA3IOT6Server4initEvEUlS1_E8_E9_M_invokeERKSt9_Any_dataOS1_
1074400860 00000015 t _ZNSt17_Function_handlerIFvP21AsyncWebServerRequestEZN3JCA3IOT6Server4initEvEUlS1_E9_E9_M_invokeERKSt9_Any_dataOS1_
1074400908 00000146 t _ZNSt17_Function_handlerIFvP21AsyncWebServerRequestPhjjjEZN3JCA3IOT6Server4initEvEUlS1_S2_jjjE15_E9_M_invokeERKSt9_Any_dataOS1_OS2_OjSE_SE_
1074401112 00000130 t _ZNSt17_Function_handlerIFvP21AsyncWebServerRequestRK6StringjPhjbEZN3JCA3IOT6Server4initEvEUlS1_S2_jS5_jbE14_E9_M_invokeERKSt9_Any_dataOS1_S4_OjOS5_SG_Ob
1074400508 00000158 t _ZNSt17_Function_handlerIFvP21AsyncWebServerRequestRK6StringjPhjbEZN3JCA3IOT6Server4initEvEUlS1_S2_jS5_jbE5_E9_M_invokeERKSt9_Any_dataOS1_S4_OjOS5_SG_Ob
1074400684 00000158 t _ZNSt17_Function_handlerIFvP21AsyncWebServerRequestRK6StringjPhjbEZN3JCA3IOT6Server4initEvEUlS1_S2_jS5_jbE7_E9_M_invokeERKSt9_Any_dataOS1_S4_OjOS5_SG_Ob
1074976328 00000005 t _ZNSt17_Function_handlerIFvPvP11AsyncClientaEZN20AsyncWebSocketClientC4EP21AsyncWebServerRequestP14AsyncWebSocketEUlS0_S2_aE_E9_M_invokeERKSt9_Any_dataOS0_OS2_Oa
1074976596 00000005 t _ZNSt17_Function_handlerIFvPvP11AsyncClientaEZN21AsyncWebServerRequestC4EP14AsyncWebServerS2_EUlS0_S2_aE_E9_M_invokeERKSt9_Any_dataOS0_OS2_Oa
1074318812 00000066 t _ZNSt17_Function_handlerIFvPvP11AsyncClientEZN14AsyncWebServerC4EtEUlS0_S2_E_E9_M_invokeERKSt9_Any_dataOS0_OS2_
1074286140 00000038 t _ZNSt17_Function_handlerIFvPvP11AsyncClientEZN20AsyncWebSocketClientC4EP21AsyncWebServerRequestP14AsyncWebSocketEUlS0_S2_E1_E9_M_invokeERKSt9_Any_dataOS0_OS2_
1074291104 00000010 t _ZNSt17_Function_handlerIFvPvP11AsyncClientEZN20AsyncWebSocketClientC4EP21AsyncWebServerRequestP14AsyncWebSocketEUlS0_S2_E4_E9_M_invokeERKSt9_Any_dataOS0_OS2_
1074302352 00000034 t _ZNSt17_Function_handlerIFvPvP11AsyncClientEZN21AsyncWebServerRequestC4EP14AsyncWebServerS2_EUlS0_S2_E1_E9_M_invokeERKSt9_Any_dataOS0_OS2_
1074302204 00000010 t _ZNSt17_Function_handlerIFvPvP11AsyncClientEZN21AsyncWebServerRequestC4EP14AsyncWebServerS2_EUlS0_S2_E4_E9_M_invokeERKSt9_Any_dataOS0_OS2_
1074287400 00000015 t _ZNSt17_Function_handlerIFvPvP11AsyncClientjEZN20AsyncWebSocketClientC4EP21AsyncWebServerRequestP14AsyncWebSocketEUlS0_S2_jE2_E9_M_invokeERKSt9_Any_dataOS0_OS2_Oj
1074302308 00000015 t _ZNSt17_Function_handlerIFvPvP11AsyncClientjEZN21AsyncWebServerRequestC4EP14AsyncWebServerS2_EUlS0_S2_jE2_E9_M_invokeERKSt9_Any_dataOS0_OS2_Oj
1074291612 00000014 t _ZNSt17_Function_handlerIFvPvP11AsyncClientjjEZN20AsyncWebSocketClientC4EP21AsyncWebServerRequestP14AsyncWebSocketEUlS0_S2_jjE0_E9_M_invokeERKSt9_Any_dataOS0_OS2_OjSG_
1074302276 00000014 t _ZNSt17_Function_handlerIFvPvP11AsyncClientjjEZN21AsyncWebServerRequestC4EP14AsyncWebServerS2_EUlS0_S2_jjE0_E9_M_invokeERKSt9_Any_dataOS0_OS2_OjSE_
1074290916 00000014 t _ZNSt17_Function_handlerIFvPvP11AsyncClientS0_jEZN20AsyncWebSocketClientC4EP21AsyncWebServerRequestP14AsyncWebSocketEUlS0_S2_S0_jE3_E9_M_invokeERKSt9_Any_dataOS0_OS2_SE_Oj
1074310872 00000014 t _ZNSt17_Function_handlerIFvPvP11AsyncClientS0_jEZN21AsyncWebServerRequestC4EP14AsyncWebServerS2_EUlS0_S2_S0_jE3_E9_M_invokeERKSt9_Any_dataOS0_OS2_SC_Oj
1074412388 00000103 t _ZNSt17_Function_handlerIFvR14AsyncUDPPacketEZN3JCA3IOT6Server4initEvEUlS0_E_E9_M_invokeERKSt9_Any_dataS1_
1074976068 00000014 W _ZNSt17_Function_handlerIFvRN11ArduinoJson8V741PB2211JsonVariantES3_EPS4_E9_M_invokeERKSt9_Any_dataS3_S3_
1074975992 00000010 W _ZNSt17_Function_handlerIFvvEPS0_E9_M_invokeERKSt9_Any_data
1074979064 00000030 W _ZNSt17_Function_handlerIFvvESt5_BindIFMN3JCA3FNC10ServerLinkEFvvEPS4_EEE9_M_invokeERKSt9_Any_data
1074977976 00000030 W _ZNSt17_Function_handlerIFvvESt5_BindIFMN3JCA3FNC6FeederEFvvEPS4_EEE9_M_invokeERKSt9_Any_data
1074978008 00000030 W _ZNSt17_Function_handlerIFvvESt5_BindIFMN3JCA3FNC8LedStripEFvvEPS4_EEE9_M_invokeERKSt9_Any_data
1074977904 00000030 W _ZNSt17_Function_handlerIFvvESt5_BindIFMN3JCA3FNC9AcDimmersEFvvEPS4_EEE9_M_invokeERKSt9_Any_data
1074298596 00000118 t _ZNSt17_Function_handlerIFvvEZN20AsyncMiddlewareChain9_runChainEP21AsyncWebServerRequestSt8functionIS0_EEUlvE_E9_M_invokeERKSt9_Any_data
1074305384 00000130 t _ZNSt17_Function_handlerIFvvEZN21AsyncWebServerRequest10_parseLineEvEUlvE_E9_M_invokeERKSt9_Any_data
1074305252 00000130 t _ZNSt17_Function_handlerIFvvEZN21AsyncWebServerRequest7_onDataEPvjEUlvE_E9_M_invokeERKSt9_Any_data
1074374048 00000010 t _ZNSt17_Function_handlerIFvvEZN3JCA3FNC11ClockValuesC4Eh6StringEUlvE_E9_M_invokeERKSt9_Any_data
1074301912 00000014 t _ZNSt17_Function_handlerIFvvEZZN21AsyncWebServerRequest10_parseLineEvENKUlvE_clEvEUlvE_E9_M_invokeERKSt9_Any_data
1074301896 00000014 t _ZNSt17_Function_handlerIFvvEZZN21AsyncWebServerRequest7_onDataEPvjENKUlvE_clEvEUlvE_E9_M_invokeERKSt9_Any_data
1074842576 00000018 T _ZNSt17bad_function_callD0Ev
1074842556 00000018 T _ZNSt17bad_function_callD1Ev
1074842556 00000018 T _ZNSt17bad_function_callD2Ev
1074854832 00000023 W _ZNSt23_Sp_counted_ptr_inplaceI11VFSFileImplSaIS0_ELN9__gnu_cxx12_Lock_policyE1EE10_M_destroyEv
1074987072 00000015 W _ZNSt23_Sp_counted_ptr_inplaceI11VFSFileImplSaIS0_ELN9__gnu_cxx12_Lock_policyE1EE10_M_disposeEv
1074851820 00000018 W _ZNSt23_Sp_counted_ptr_inplaceI11VFSFileImplSaIS0_ELN9__gnu_cxx12_Lock_policyE1EE14_M_get_deleterERKSt9type_info
1074853932 00000018 W _ZNSt23_Sp_counted_ptr_inplaceI11VFSFileImplSaIS0_ELN9__gnu_cxx12_Lock_policyE1EED0Ev
1074853912 00000018 W _ZNSt23_Sp_counted_ptr_inplaceI11VFSFileImplSaIS0_ELN9__gnu_cxx12_Lock_policyE1EED1Ev
1074853912 00000018 W _ZNSt23_Sp_counted_ptr_inplaceI11VFSFileImplSaIS0_ELN9__gnu_cxx12_Lock_policyE1EED2Ev
1074286236 00000018 W _ZNSt23_Sp_counted_ptr_inplaceISt6vectorIhSaIhEESaIS2_ELN9__gnu_cxx12_Lock_policyE1EE10_M_destroyEv
1074286180 00000015 W _ZNSt23_Sp_counted_ptr_inplaceISt6vectorIhSaIhEESaIS2_ELN9__gnu_cxx12_Lock_policyE1EE10_M_disposeEv
1074285932 00000018 W _ZNSt23_Sp_counted_ptr_inplaceISt6vectorIhSaIhEESaIS2_ELN9__gnu_cxx12_Lock_policyE1EE14_M_get_deleterERKSt9type_info
1074286216 00000020 W _ZNSt23_Sp_counted_ptr_inplaceISt6vectorIhSaIhEESaIS2_ELN9__gnu_cxx12_Lock_policyE1EED0Ev
1074286196 00000018 W _ZNSt23_Sp_counted_ptr_inplaceISt6vectorIhSaIhEESaIS2_ELN9__gnu_cxx12_Lock_policyE1EED1Ev
1074286196 00000018 W _ZNSt23_Sp_counted_ptr_inplaceISt6vectorIhSaIhEESaIS2_ELN9__gnu_cxx12_Lock_policyE1EED2Ev
1074338980 00000079 W _ZNSt3mapI6StringN3JCA3IOT14FuncLinkType_TESt4lessIS0_ESaISt4pairIKS0_S3_EEEixEOS0_
1074292004 00000064 t _ZNSt5dequeI21AsyncWebSocketControlSaIS0_EE15_M_destroy_dataESt15_Deque_iteratorIS0_RS0_PS0_ES6_RKS1_$isra$165
1074288864 00000054 W _ZNSt5dequeI21AsyncWebSocketControlSaIS0_EE9pop_frontEv
1074292068 00000054 W _ZNSt5dequeI21AsyncWebSocketControlSaIS0_EED1Ev
1074292068 00000054 W _ZNSt5dequeI21AsyncWebSocketControlSaIS0_EED2Ev
1074289148 00000361 W _ZNSt5dequeI21AsyncWebSocketMessageSaIS0_EE12emplace_backIJRSt10shared_ptrISt6vectorIhSaIhEEERhRbEEERS0_DpOT_
1074292148 00000057 W _ZNSt5dequeI21AsyncWebSocketMessageSaIS0_EE19_M_destroy_data_auxESt15_Deque_iteratorIS0_RS0_PS0_ES6_
1074292208 00000068 W _ZNSt5dequeI21AsyncWebSocketMessageSaIS0_EED1Ev
1074292208 00000068 W _ZNSt5dequeI21AsyncWebSocketMessageSaIS0_EED2Ev
1074286256 00000018 W _ZNSt5mutex4lockEv
1074305744 00000022 W _ZNSt6vectorI6StringSaIS0_EED1Ev
1074305744 00000022 W _ZNSt6vectorI6StringSaIS0_EED2Ev
1074316744 00000187 W _ZNSt6vectorIhSaIhEE15_M_range_insertIPhEEvN9__gnu_cxx17__normal_iteratorIS3_S1_EET_S7_St20forward_iterator_tag
1074316964 00000262 W _ZNSt6vectorIhSaIhEE15_M_range_insertIPKcEEvN9__gnu_cxx17__normal_iteratorIPhS1_EET_S9_St20forward_iterator_tag
1074316932 00000030 W _ZNSt6vectorIhSaIhEE6insertIPhvEEN9__gnu_cxx17__normal_iteratorIS3_S1_EENS5_IPKhS1_EET_SA_
1074335352 00000043 t _ZNSt6vectorIN3JCA3IOT14FuncLinkPair_TESaIS2_EE14_M_move_assignEOS4_St17integral_constantIbLb1EE$isra$161$constprop$308
1074338164 00000150 W _ZNSt6vectorIN3JCA3IOT14FuncLinkPair_TESaIS2_EE17_M_realloc_insertIJRKS2_EEEvN9__gnu_cxx17__normal_iteratorIPS2_S4_EEDpOT_
1074338316 00000038 W _ZNSt6vectorIN3JCA3IOT14FuncLinkPair_TESaIS2_EE9push_backERKS2_
1074356884 00000142 W _ZNSt6vectorIPN3JCA3FNC10FuncParentESaIS3_EE17_M_realloc_insertIJS3_EEEvN9__gnu_cxx17__normal_iteratorIPS3_S5_EEDpOT_
1074338356 00000142 W _ZNSt6vectorIPN3JCA3IOT8FuncLinkESaIS3_EE17_M_realloc_insertIJS3_EEEvN9__gnu_cxx17__normal_iteratorIPS3_S5_EEDpOT_
1074354504 00000036 W _ZNSt6vectorIPN3JCA3TAG9TagParentESaIS3_EE12emplace_backIJS3_EEERS3_DpOT_
1074354360 00000142 W _ZNSt6vectorIPN3JCA3TAG9TagParentESaIS3_EE17_M_realloc_insertIJS3_EEEvN9__gnu_cxx17__normal_iteratorIPS3_S5_EEDpOT_
1074305640 00000040 W _ZNSt7__cxx1110_List_baseI14AsyncWebHeaderSaIS1_EE8_M_clearEv
1074305680 00000040 W _ZNSt7__cxx1110_List_baseI17AsyncWebParameterSaIS1_EE8_M_clearEv
1074319420 00000034 W _ZNSt7__cxx1110_List_baseISt10shared_ptrI15AsyncWebRewriteESaIS3_EE8_M_clearEv
1074319456 00000035 W _ZNSt7__cxx1110_List_baseISt10unique_ptrI15AsyncWebHandlerSt14default_deleteIS2_EESaIS5_EE8_M_clearEv
1074843916 00000018 W _ZNSt7__cxx1112basic_stringIcSt11char_traitsIcESaIcEE10_M_disposeEv
1074843984 00000063 W _ZNSt7__cxx1112basic_stringIcSt11char_traitsIcESaIcEE12_M_constructIPKcEEvT_S8_St20forward_iterator_tag
1074843964 00000018 W _ZNSt7__cxx1112basic_stringIcSt11char_traitsIcESaIcEE13_S_copy_charsEPcPKcS7_
1074843936 00000026 W _ZNSt7__cxx1112basic_stringIcSt11char_traitsIcESaIcEE7_S_copyEPcPKcj
1074843864 00000052 W _ZNSt7__cxx1112basic_stringIcSt11char_traitsIcESaIcEE9_M_createERjj
1074313256 00000046 W _ZNSt7__cxx114listI14AsyncWebHeaderSaIS1_EE5eraseESt20_List_const_iteratorIS1_E
1074986240 00000017 T _ZNSt8__detail15_List_node_base7_M_hookEPS0_
1074986260 00000013 T _ZNSt8__detail15_List_node_base9_M_unhookEv
1074338784 00000195 W _ZNSt8_Rb_treeI6StringSt4pairIKS0_N3JCA3IOT14FuncLinkType_TEESt10_Select1stIS6_ESt4lessIS0_ESaIS6_EE22_M_emplace_hint_uniqueIJRKSt21piecewise_construct_tSt5tupleIJOS0_EESH_IJEEEEESt17_Rb_tree_iteratorIS6_ESt23_Rb_tree_const_iteratorIS6_EDpOT_
1074338500 00000099 W _ZNSt8_Rb_treeI6StringSt4pairIKS0_N3JCA3IOT14FuncLinkType_TEESt10_Select1stIS6_ESt4lessIS0_ESaIS6_EE24_M_get_insert_unique_posERS2_
1074338600 00000183 W _ZNSt8_Rb_treeI6StringSt4pairIKS0_N3JCA3IOT14FuncLinkType_TEESt10_Select1stIS6_ESt4lessIS0_ESaIS6_EE29_M_get_insert_hint_unique_posESt23_Rb_tree_const_iteratorIS6_ERS2_
1074285408 00000035 W _ZNSt8_Rb_treeI6StringSt4pairIKS0_N3JCA3IOT14FuncLinkType_TEESt10_Select1stIS6_ESt4lessIS0_ESaIS6_EE8_M_eraseEPSt13_Rb_tree_nodeIS6_E
1074335268 00000083 t _ZNSt8_Rb_treeI6StringSt4pairIKS0_PvESt10_Select1stIS4_ESt4lessIS0_ESaIS4_EE13_M_clone_nodeINSA_11_Alloc_nodeEEEPSt13_Rb_tree_nodeIS4_EPKSE_RT_$isra$299
1074279924 00000279 W _ZNSt8_Rb_treeI6StringSt4pairIKS0_PvESt10_Select1stIS4_ESt4lessIS0_ESaIS4_EE17_M_emplace_uniqueIJS1_IS0_S3_EEEES1_ISt17_Rb_tree_iteratorIS4_EbEDpOT_
1074330700 00000193 W _ZNSt8_Rb_treeI6StringSt4pairIKS0_PvESt10_Select1stIS4_ESt4lessIS0_ESaIS4_EE22_M_emplace_hint_uniqueIJRKSt21piecewise_construct_tSt5tupleIJRS2_EESF_IJEEEEESt17_Rb_tree_iteratorIS4_ESt23_Rb_tree_const_iteratorIS4_EDpOT_
1074330412 00000099 W _ZNSt8_Rb_treeI6StringSt4pairIKS0_PvESt10_Select1stIS4_ESt4lessIS0_ESaIS4_EE24_M_get_insert_unique_posERS2_
1074330512 00000187 W _ZNSt8_Rb_treeI6StringSt4pairIKS0_PvESt10_Select1stIS4_ESt4lessIS0_ESaIS4_EE29_M_get_insert_hint_unique_posESt23_Rb_tree_const_iteratorIS4_ERS2_
1074340372 00000128 W _ZNSt8_Rb_treeI6StringSt4pairIKS0_PvESt10_Select1stIS4_ESt4lessIS0_ESaIS4_EE7_M_copyINSA_11_Alloc_nodeEEEPSt13_Rb_tree_nodeIS4_EPKSE_PSt18_Rb_tree_node_baseRT_
1074285488 00000035 W _ZNSt8_Rb_treeI6StringSt4pairIKS0_PvESt10_Select1stIS4_ESt4lessIS0_ESaIS4_EE8_M_eraseEPSt13_Rb_tree_nodeIS4_E
1074359328 00000015 W _ZNSt8_Rb_treeI6StringSt4pairIKS0_PvESt10_Select1stIS4_ESt4lessIS0_ESaIS4_EED1Ev
1074359328 00000015 W _ZNSt8_Rb_treeI6StringSt4pairIKS0_PvESt10_Select1stIS4_ESt4lessIS0_ESaIS4_EED2Ev
1074339660 00000212 W _ZNSt8_Rb_treeI6StringSt4pairIKS0_St8functionIFbN11ArduinoJson8V741PB2210JsonObjectES6_RSt3mapIS0_PvSt4lessIS0_ESaIS1_IS2_S8_EEEEEESt10_Select1stISH_ESA_SaISH_EE22_M_emplace_hint_uniqueIJRKSt21piecewise_construct_tSt5tupleIJOS0_EESQ_IJEEEEESt17_Rb_tree_iteratorISH_ESt23_Rb_tree_const_iteratorISH_EDpOT_
1074339376 00000099 W _ZNSt8_Rb_treeI6StringSt4pairIKS0_St8functionIFbN11ArduinoJson8V741PB2210JsonObjectES6_RSt3mapIS0_PvSt4lessIS0_ESaIS1_IS2_S8_EEEEEESt10_Select1stISH_ESA_SaISH_EE24_M_get_insert_unique_posERS2_
1074339476 00000183 W _ZNSt8_Rb_treeI6StringSt4pairIKS0_St8functionIFbN11ArduinoJson8V741PB2210JsonObjectES6_RSt3mapIS0_PvSt4lessIS0_ESaIS1_IS2_S8_EEEEEESt10_Select1stISH_ESA_SaISH_EE29_M_get_insert_hint_unique_posESt23_Rb_tree_const_iteratorISH_ERS2_
1074285444 00000044 W _ZNSt8_Rb_treeI6StringSt4pairIKS0_St8functionIFbN11ArduinoJson8V741PB2210JsonObjectES6_RSt3mapIS0_PvSt4lessIS0_ESaIS1_IS2_S8_EEEEEESt10_Select1stISH_ESA_SaISH_EE8_M_eraseEPSt13_Rb_tree_nodeISH_E
1074353868 00000366 W _ZNSt8_Rb_treeI6StringSt4pairIKS0_St8functionIFbN11ArduinoJson8V741PB2210JsonObjectES6_RSt6vectorIPN3JCA3FNC10FuncParentESaISB_EESt3mapIS0_PvSt4lessIS0_ESaIS1_IS2_SG_EEEEEESt10_Select1stISO_ESI_SaISO_EE17_M_emplace_uniqueIJS1_IS0_SN_EEEES1_ISt17_Rb_tree_iteratorISO_EbEDpOT_
1074340160 00000212 W _ZNSt8_Rb_treeI6StringSt4pairIKS0_St8functionIFbN11ArduinoJson8V741PB2210JsonObjectES6_RSt6vectorIPN3JCA3FNC10FuncParentESaISB_EESt3mapIS0_PvSt4lessIS0_ESaIS1_IS2_SG_EEEEEESt10_Select1stISO_ESI_SaISO_EE22_M_emplace_hint_uniqueIJRKSt21piecewise_construct_tSt5tupleIJOS0_EESX_IJEEEEESt17_Rb_tree_iteratorISO_ESt23_Rb_tree_const_iteratorISO_EDpOT_
1074339872 00000099 W _ZNSt8_Rb_treeI6StringSt4pairIKS0_St8functionIFbN11ArduinoJson8V741PB2210JsonObjectES6_RSt6vectorIPN3JCA3FNC10FuncParentESaISB_EESt3mapIS0_PvSt4lessIS0_ESaIS1_IS2_SG_EEEEEESt10_Select1stISO_ESI_SaISO_EE24_M_get_insert_unique_posERS2_
1074339972 00000187 W _ZNSt8_Rb_treeI6StringSt4pairIKS0_St8functionIFbN11ArduinoJson8V741PB2210JsonObjectES6_RSt6vectorIPN3JCA3FNC10FuncParentESaISB_EESt3mapIS0_PvSt4lessIS0_ESaIS1_IS2_SG_EEEEEESt10_Select1stISO_ESI_SaISO_EE29_M_get_insert_hint_unique_posESt23_Rb_tree_const_iteratorISO_ERS2_
1074285524 00000044 W _ZNSt8_Rb_treeI6StringSt4pairIKS0_St8functionIFbN11ArduinoJson8V741PB2210JsonObjectES6_RSt6vectorIPN3JCA3FNC10FuncParentESaISB_EESt3mapIS0_PvSt4lessIS0_ESaIS1_IS2_SG_EEEEEESt10_Select1stISO_ESI_SaISO_EE8_M_eraseEPSt13_Rb_tree_nodeISO_E
1074364260 00000203 W _ZNSt8_Rb_treeIhSt4pairIKh6StringESt10_Select1stIS3_ESt4lessIhESaIS3_EE16_M_insert_uniqueIS3_EES0_ISt17_Rb_tree_iteratorIS3_EbEOT_
1074873836 00000035 W _ZNSt8_Rb_treeIhSt4pairIKh6StringESt10_Select1stIS3_ESt4lessIhESaIS3_EE8_M_eraseEPSt13_Rb_tree_nodeIS3_E
1074977140 00000024 t _ZNSt8functionIF6StringRKS0_EEaSEDn$isra$12
1074418324 00000090 W _ZNSt8functionIF6StringRKS0_EEaSERKS4_
1074304220 00000050 W _ZNSt8functionIF6StringRKS0_EEC1ERKS4_
1074304220 00000050 W _ZNSt8functionIF6StringRKS0_EEC2ERKS4_
1074862748 00000050 W _ZNSt8functionIFv18arduino_event_id_t20arduino_event_info_tEEC1ERKS3_
1074862748 00000050 W _ZNSt8functionIFv18arduino_event_id_t20arduino_event_info_tEEC2ERKS3_
1074319704 00000074 W _ZNSt8functionIFvP21AsyncWebServerRequestEEaSERKS3_
1074319264 00000050 W _ZNSt8functionIFvP21AsyncWebServerRequestEEC1ERKS3_
1074319264 00000050 W _ZNSt8functionIFvP21AsyncWebServerRequestEEC2ERKS3_
1074319944 00000074 W _ZNSt8functionIFvP21AsyncWebServerRequestPhjjjEEaSERKS4_
1074319368 00000050 W _ZNSt8functionIFvP21AsyncWebServerRequestPhjjjEEC1ERKS4_
1074319368 00000050 W _ZNSt8functionIFvP21AsyncWebServerRequestPhjjjEEC2ERKS4_
1074319868 00000074 W _ZNSt8functionIFvP21AsyncWebServerRequestRK6StringjPhjbEEaSERKS7_
1074319316 00000050 W _ZNSt8functionIFvP21AsyncWebServerRequestRK6StringjPhjbEEC1ERKS7_
1074319316 00000050 W _ZNSt8functionIFvP21AsyncWebServerRequestRK6StringjPhjbEEC2ERKS7_
1074858960 00000114 W _ZNSt8functionIFvPvP11AsyncClientEEaSERKS4_
1074396364 00000114 W _ZNSt8functionIFvR14AsyncUDPPacketEEaSERKS3_
1074399148 00000122 W _ZNSt8functionIFvRN11ArduinoJson8V741PB2211JsonVariantES3_EEaSERKS5_
1074401956 00000114 W _ZNSt8functionIFvvEEaSERKS1_
1074298432 00000050 W _ZNSt8functionIFvvEEC1ERKS1_
1074423804 00000060 W _ZNSt8functionIFvvEEC1ISt5_BindIFMN3JCA3FNC10ServerLinkEFvvEPS6_EEvvEET_
1074385376 00000060 W _ZNSt8functionIFvvEEC1ISt5_BindIFMN3JCA3FNC8LedStripEFvvEPS6_EEvvEET_
1074298432 00000050 W _ZNSt8functionIFvvEEC2ERKS1_
1074423804 00000060 W _ZNSt8functionIFvvEEC2ISt5_BindIFMN3JCA3FNC10ServerLinkEFvvEPS6_EEvvEET_
1074385376 00000060 W _ZNSt8functionIFvvEEC2ISt5_BindIFMN3JCA3FNC8LedStripEFvvEPS6_EEvvEET_
1074843040 00000020 T _ZNSt9bad_allocD0Ev
1074843020 00000018 T _ZNSt9bad_allocD1Ev
1074843020 00000018 T _ZNSt9bad_allocD2Ev
1074986080 00000005 T _ZNSt9exceptionD1Ev
1074986080 00000005 T _ZNSt9exceptionD2Ev
1074986632 00000005 T _ZNSt9type_infoD1Ev
1074986632 00000005 T _ZNSt9type_infoD2Ev
1074839720 00000056 T _Znwj
1074842064 00000054 T _ZnwjRKSt9nothrow_t
1074434336 00000022 T _ZplRK15StringSumHelperc
1074434296 00000038 T _ZplRK15StringSumHelperPKc
1074434248 00000045 T _ZplRK15StringSumHelperRK6String
1074841340 00000009 T _ZSt10unexpectedv
1074853988 00000098 W _ZSt11make_sharedI11VFSFileImplJP7VFSImplRPKcS5_EESt10shared_ptrIT_EDpOT0_
1074841260 00000026 T _ZSt13get_terminatev
1074316576 00000023 W _ZSt13move_backwardIPhS0_ET0_T_S2_S1_
1074841312 00000026 T _ZSt14get_unexpectedv
1074839216 00000026 T _ZSt15get_new_handlerv
1074842876 00000022 T _ZSt17__throw_bad_allocv
1074842120 00000012 T _ZSt18_Rb_tree_decrementPSt18_Rb_tree_node_base
1074986424 00000044 T _ZSt18_Rb_tree_incrementPSt18_Rb_tree_node_base
1074842900 00000054 T _ZSt19__throw_logic_errorPKc
1056973151 00000001 V _ZSt19piecewise_construct
1074842956 00000054 T _ZSt20__throw_length_errorPKc
1074842776 00000100 T _ZSt20__throw_system_errori
1074312100 00000024 t _ZSt22__uninitialized_copy_aIPhS0_hET0_T_S2_S1_RSaIT1_E$isra$63
1074312100 00000024 t _ZSt22__uninitialized_move_aIPhS0_SaIhEET0_T_S3_S2_RT1_$isra$67
1074842596 00000022 T _ZSt25__throw_bad_function_callv
1074842132 00000194 T _ZSt29_Rb_tree_insert_and_rebalancebPSt18_Rb_tree_node_baseS0_RS_
1074298716 00000054 W _ZSt4swapISt9_Any_dataENSt9enable_ifIXsrSt6__and_IJSt6__not_ISt15__is_tuple_likeIT_EESt21is_move_constructibleIS5_ESt18is_move_assignableIS5_EEE5valueEvE4typeERS5_SF_
1057055140 00000001 D _ZSt7nothrow
1074976788 00000036 t _ZSt9__advanceISt20_List_const_iteratorI14AsyncWebHeaderEiEvRT_T0_St26bidirectional_iterator_tag$isra$80
1074976788 00000036 t _ZSt9__advanceISt20_List_const_iteratorI17AsyncWebParameterEiEvRT_T0_St26bidirectional_iterator_tag$isra$84
1074841288 00000009 T _ZSt9terminatev
1074986372 00000052 t _ZStL23local_Rb_tree_decrementPSt18_Rb_tree_node_base
1074986276 00000046 t _ZStL25local_Rb_tree_rotate_leftPSt18_Rb_tree_node_baseRS0_
1074986324 00000046 t _ZStL26local_Rb_tree_rotate_rightPSt18_Rb_tree_node_baseRS0_
1074289044 00000058 W _ZStmiI21AsyncWebSocketMessageRS0_PS0_ENSt15_Deque_iteratorIT_T0_T1_E15difference_typeERKS7_SA_
1057055032 00000012 V _ZTIN9__gnu_cxx24__concurrence_lock_errorE
1057055088 00000012 V _ZTIN9__gnu_cxx26__concurrence_unlock_errorE
1057055484 00000012 V _ZTISt11logic_error
1057055516 00000012 V _ZTISt12length_error
1057055396 00000012 V _ZTISt12system_error
1057055364 00000012 V _ZTISt13runtime_error
1057055304 00000012 V _ZTISt17bad_function_call
1057055156 00000012 V _ZTISt9bad_alloc
1057054984 00000008 V _ZTISt9exception
1057054992 00000039 V _ZTSN9__gnu_cxx24__concurrence_lock_errorE
1057055044 00000041 V _ZTSN9__gnu_cxx26__concurrence_unlock_errorE
1057055468 00000016 V _ZTSSt11logic_error
1057055496 00000017 V _ZTSSt12length_error
1057055376 00000017 V _ZTSSt12system_error
1057055344 00000018 V _ZTSSt13runtime_error
1057055282 00000022 V _ZTSSt17bad_function_call
1057055141 00000013 V _ZTSSt9bad_alloc
1057054970 00000013 V _ZTSSt9exception
1056987100 00000020 V _ZTV11IPv6Address
1057056040 00000088 V _ZTV11VFSFileImpl
1057055912 00000064 V _ZTV12AccelStepper
1056973152 00000040 V _ZTV12LittleFSImpl
1056978172 00000056 V _ZTV14AsyncUDPPacket
1056970316 00000036 V _ZTV14AsyncWebSocket
1056987004 00000056 V _ZTV14HardwareSerial
1056970092 00000036 V _ZTV15AsyncWebHandler
1056972364 00000044 V _ZTV17AsyncFileResponse
1056972280 00000040 V _ZTV18AsyncBasicResponse
1056972408 00000044 V _ZTV20AsyncProgmemResponse
1056972320 00000044 V _ZTV21AsyncAbstractResponse
1056972564 00000036 V _ZTV21AsyncStaticWebHandler
1056972240 00000040 V _ZTV22AsyncWebServerResponse
1056970352 00000040 V _ZTV22AsyncWebSocketResponse
1056972600 00000036 V _ZTV23AsyncCallbackWebHandler
1057056312 00000056 V _ZTV7TwoWire
1056978228 00000032 V _ZTV8AsyncUDP
1056987072 00000020 V _ZTV9IPAddress
1057055564 00000044 V _ZTVN10__cxxabiv117__class_type_infoE
1057055220 00000044 V _ZTVN10__cxxabiv120__si_class_type_infoE
1056970072 00000020 V _ZTVN11ArduinoJson8V741PB226detail16DefaultAllocatorE
1057055408 00000040 d _ZTVN12_GLOBAL__N_122generic_error_categoryE
1057055976 00000056 V _ZTVN2fs4FileE
1056976472 00000020 V _ZTVN3JCA3FNC10DigitalOutE
1056973024 00000020 V _ZTVN3JCA3FNC10FuncParentE
1056986796 00000020 V _ZTVN3JCA3FNC10ServerLinkE
1056976044 00000020 V _ZTVN3JCA3FNC11ClockValuesE
1056986868 00000020 V _ZTVN3JCA3FNC11ValueAnalogE
1056986940 00000020 V _ZTVN3JCA3FNC12ValueDigitalE
1056978096 00000020 V _ZTVN3JCA3FNC13PIDControllerE
1056976252 00000020 V _ZTVN3JCA3FNC14DigitalCounterE
1056977600 00000020 V _ZTVN3JCA3FNC5LevelE
1056977204 00000020 V _ZTVN3JCA3FNC6FeederE
1056974740 00000020 V _ZTVN3JCA3FNC6INA219E
1056975824 00000020 V _ZTVN3JCA3FNC7ChargerE
1056976680 00000020 V _ZTVN3JCA3FNC7DS18B20E
1056977412 00000020 V _ZTVN3JCA3FNC8LedStripE
1056974316 00000020 V _ZTVN3JCA3FNC9AcDimmersE
1056976168 00000020 V _ZTVN3JCA3FNC9DaySelectE
1057056576 00000032 V _ZTVN3JCA3TAG12TagListUInt8E
1057056400 00000032 V _ZTVN3JCA3TAG13TagArrayUInt8E
1057056432 00000032 V _ZTVN3JCA3TAG7TagBoolE
1057056464 00000032 V _ZTVN3JCA3TAG8TagFloatE
1057056496 00000032 V _ZTVN3JCA3TAG8TagInt16E
1057056528 00000032 V _ZTVN3JCA3TAG8TagInt32E
1057056704 00000032 V _ZTVN3JCA3TAG8TagUInt8E
1057056368 00000032 V _ZTVN3JCA3TAG9TagParentE
1057056608 00000032 V _ZTVN3JCA3TAG9TagStringE
1057056640 00000032 V _ZTVN3JCA3TAG9TagUInt16E
1057056672 00000032 V _ZTVN3JCA3TAG9TagUInt32E
1056994408 00000048 V _ZTVN3nvs12NVSPartitionE
1056994348 00000060 V _ZTVN3nvs15NVSHandleSimpleE
1056994456 00000016 V _ZTVN3nvs19NVSPartitionManagerE
1057055100 00000020 V _ZTVN9__gnu_cxx24__concurrence_lock_errorE
1057055120 00000020 V _ZTVN9__gnu_cxx26__concurrence_unlock_errorE
1057055608 00000020 V _ZTVSt11logic_error
1057055628 00000020 V _ZTVSt12length_error
1057055448 00000020 V _ZTVSt12system_error
1057055648 00000020 V _ZTVSt13runtime_error
1056973192 00000028 V _ZTVSt15_Sp_counted_ptrIP12LittleFSImplLN9__gnu_cxx12_Lock_policyE1EE
1056970288 00000028 V _ZTVSt16_Sp_counted_baseILN9__gnu_cxx12_Lock_policyE1EE
1057055316 00000020 V _ZTVSt17bad_function_call
1057056128 00000028 V _ZTVSt23_Sp_counted_ptr_inplaceI11VFSFileImplSaIS0_ELN9__gnu_cxx12_Lock_policyE1EE
1056970392 00000028 V _ZTVSt23_Sp_counted_ptr_inplaceISt6vectorIhSaIhEESaIS2_ELN9__gnu_cxx12_Lock_policyE1EE
1057055544 00000020 V _ZTVSt9bad_alloc
1073515160 00000008 b _ZZ16yieldIfNecessaryvE9lastYield
1057035050 00000045 d _ZZ17__cxa_guard_abortE19__PRETTY_FUNCTION__
1057035176 00000046 d _ZZ19__cxa_guard_acquireE19__PRETTY_FUNCTION__
1057035095 00000047 d _ZZ19__cxa_guard_releaseE19__PRETTY_FUNCTION__
1056970066 00000006 d _ZZ5setupvE8__func__
1073523555 00000001 b _ZZ9tcpipInitvE11initialized
1057035142 00000034 d _ZZL18wait_for_guard_objP7guard_tE19__PRETTY_FUNCTION__
1056970128 00000072 V _ZZN11ArduinoJson8V741PB226detail11FloatTraitsIdLj8EE25negativeBinaryPowersOfTenEvE7factors
1056970200 00000072 V _ZZN11ArduinoJson8V741PB226detail11FloatTraitsIdLj8EE25positiveBinaryPowersOfTenEvE7factors
1056973044 00000024 V _ZZN11ArduinoJson8V741PB226detail11FloatTraitsIfLj4EE25negativeBinaryPowersOfTenEvE7factors
1056973068 00000024 V _ZZN11ArduinoJson8V741PB226detail11FloatTraitsIfLj4EE25positiveBinaryPowersOfTenEvE7factors
1073495752 00000004 V _ZZN11ArduinoJson8V741PB226detail16DefaultAllocator8instanceEvE9allocator
1073523416 00000004 b _ZZN12_GLOBAL__N_116get_atomic_mutexEvE12atomic_mutex
1073514072 00000012 V _ZZN14DefaultHeaders8InstanceEvE8instance
1073502864 00000001 d _ZZN16WiFiGenericClass14_eventCallbackEP15arduino_event_tE13first_connect
1056976446 00000007 d _ZZN3JCA3FNC10DigitalOut6CreateEN11ArduinoJson8V741PB2210JsonObjectES4_RSt6vectorIPNS0_10FuncParentESaIS7_EESt3mapI6StringPvSt4lessISC_ESaISt4pairIKSC_SD_EEEE8__func__
1056976453 00000007 d _ZZN3JCA3FNC10DigitalOut6updateER2tmE8__func__
1056976460 00000011 d _ZZN3JCA3FNC10DigitalOutC4Eh6StringE8__func__
1056973006 00000018 d _ZZN3JCA3FNC10FuncParent17writeFunctionTagsEN2fs4FileENS_3TAG10TagUsage_TEE8__func__
1056972987 00000019 d _ZZN3JCA3FNC10FuncParent18GetSetupValueUINT8EPKcRbN11ArduinoJson8V741PB2210JsonObjectES7_E8__func__
1056972905 00000020 d _ZZN3JCA3FNC10FuncParent19GetSetupHardwareRefEPKcR6StringRbN11ArduinoJson8V741PB2210JsonObjectES9_St3mapIS4_PvSt4lessIS4_ESaISt4pairIKS4_SB_EEEE8__func__
1056972925 00000020 d _ZZN3JCA3FNC10FuncParent19GetSetupValueStringEPKcRbN11ArduinoJson8V741PB2210JsonObjectES7_E8__func__
1056972967 00000020 d _ZZN3JCA3FNC10FuncParent19GetSetupValueUINT16EPKcRbN11ArduinoJson8V741PB2210JsonObjectES7_E8__func__
1056972945 00000022 d _ZZN3JCA3FNC10FuncParent21GetSetupValueUINT8ArrEPKcRPhRbN11ArduinoJson8V741PB2210JsonObjectES9_E8__func__
1056972885 00000010 d _ZZN3JCA3FNC10FuncParent9addValuesERN11ArduinoJson8V741PB2210JsonObjectEE8__func__
1056972895 00000010 d _ZZN3JCA3FNC10FuncParent9setValuesERN11ArduinoJson8V741PB2210JsonObjectEE8__func__
1056986768 00000007 d _ZZN3JCA3FNC10ServerLink6CreateEN11ArduinoJson8V741PB2210JsonObjectES4_RSt6vectorIPNS0_10FuncParentESaIS7_EESt3mapI6StringPvSt4lessISC_ESaISt4pairIKSC_SD_EEEE8__func__
1056986775 00000007 d _ZZN3JCA3FNC10ServerLink6updateER2tmE8__func__
1056986782 00000011 d _ZZN3JCA3FNC10ServerLinkC4EPNS_3IOT6ServerE6StringE8__func__
1056976017 00000007 d _ZZN3JCA3FNC11ClockValues6CreateEN11ArduinoJson8V741PB2210JsonObjectES4_RSt6vectorIPNS0_10FuncParentESaIS7_EESt3mapI6StringPvSt4lessISC_ESaISt4pairIKSC_SD_EEEE8__func__
1056976024 00000007 d _ZZN3JCA3FNC11ClockValues6updateER2tmE8__func__
1056976031 00000012 d _ZZN3JCA3FNC11ClockValuesC4Eh6StringE8__func__
1056986839 00000007 d _ZZN3JCA3FNC11ValueAnalog6CreateEN11ArduinoJson8V741PB2210JsonObjectES4_RSt6vectorIPNS0_10FuncParentESaIS7_EESt3mapI6StringPvSt4lessISC_ESaISt4pairIKSC_SD_EEEE8__func__
1056986846 00000007 d _ZZN3JCA3FNC11ValueAnalog6updateER2tmE8__func__
1056986853 00000012 d _ZZN3JCA3FNC11ValueAnalogC4E6StringS2_E8__func__
1056986912 00000007 d _ZZN3JCA3FNC12ValueDigital6CreateEN11ArduinoJson8V741PB2210JsonObjectES4_RSt6vectorIPNS0_10FuncParentESaIS7_EESt3mapI6StringPvSt4lessISC_ESaISt4pairIKSC_SD_EEEE8__func__
1056986919 00000007 d _ZZN3JCA3FNC12ValueDigital6updateER2tmE8__func__
1056986926 00000013 d _ZZN3JCA3FNC12ValueDigitalC4E6StringE8__func__
1056978065 00000007 d _ZZN3JCA3FNC13PIDController6CreateEN11ArduinoJson8V741PB2210JsonObjectES4_RSt6vectorIPNS0_10FuncParentESaIS7_EESt3mapI6StringPvSt4lessISC_ESaISt4pairIKSC_SD_EEEE8__func__
1056978072 00000007 d _ZZN3JCA3FNC13PIDController6updateER2tmE8__func__
1056978079 00000014 d _ZZN3JCA3FNC13PIDControllerC4E6StringS2_S2_E8__func__
1056976220 00000007 d _ZZN3JCA3FNC14DigitalCounter6CreateEN11ArduinoJson8V741PB2210JsonObjectES4_RSt6vectorIPNS0_10FuncParentESaIS7_EESt3mapI6StringPvSt4lessISC_ESaISt4pairIKSC_SD_EEEE8__func__
1056976227 00000007 d _ZZN3JCA3FNC14DigitalCounter6updateER2tmE8__func__
1056976234 00000015 d _ZZN3JCA3FNC14DigitalCounterC4Eh6StringE8__func__
1056977578 00000007 d _ZZN3JCA3FNC5Level6CreateEN11ArduinoJson8V741PB2210JsonObjectES4_RSt6vectorIPNS0_10FuncParentESaIS7_EESt3mapI6StringPvSt4lessISC_ESaISt4pairIKSC_SD_EEEE8__func__
1056977585 00000007 d _ZZN3JCA3FNC5Level6updateER2tmE8__func__
1056977592 00000006 d _ZZN3JCA3FNC5LevelC4Eh6StringE8__func__
1056977183 00000007 d _ZZN3JCA3FNC6Feeder6CreateEN11ArduinoJson8V741PB2210JsonObjectES4_RSt6vectorIPNS0_10FuncParentESaIS7_EESt3mapI6StringPvSt4lessISC_ESaISt4pairIKSC_SD_EEEE8__func__
1056977190 00000007 d _ZZN3JCA3FNC6Feeder6updateER2tmE8__func__
1056977197 00000007 d _ZZN3JCA3FNC6FeederC4Ehhh6StringE8__func__
1056974716 00000007 d _ZZN3JCA3FNC6INA2196CreateEN11ArduinoJson8V741PB2210JsonObjectES4_RSt6vectorIPNS0_10FuncParentESaIS7_EESt3mapI6StringPvSt4lessISC_ESaISt4pairIKSC_SD_EEEE8__func__
1056974723 00000007 d _ZZN3JCA3FNC6INA2196updateER2tmE8__func__
1056974730 00000007 d _ZZN3JCA3FNC6INA219C4EP7TwoWireh6StringE8__func__
1056975802 00000007 d _ZZN3JCA3FNC7Charger6CreateEN11ArduinoJson8V741PB2210JsonObjectES4_RSt6vectorIPNS0_10FuncParentESaIS7_EESt3mapI6StringPvSt4lessISC_ESaISt4pairIKSC_SD_EEEE8__func__
1056975809 00000007 d _ZZN3JCA3FNC7Charger6updateER2tmE8__func__
1056975816 00000008 d _ZZN3JCA3FNC7ChargerC4Ehh6StringPNS_3SYS9PwmOutputEE8__func__
1056976658 00000007 d _ZZN3JCA3FNC7DS18B206CreateEN11ArduinoJson8V741PB2210JsonObjectES4_RSt6vectorIPNS0_10FuncParentESaIS7_EESt3mapI6StringPvSt4lessISC_ESaISt4pairIKSC_SD_EEEE8__func__
1056976665 00000007 d _ZZN3JCA3FNC7DS18B206updateER2tmE8__func__
1056976672 00000008 d _ZZN3JCA3FNC7DS18B20C4EP7OneWire6StringE8__func__
1056977389 00000007 d _ZZN3JCA3FNC8LedStrip6CreateEN11ArduinoJson8V741PB2210JsonObjectES4_RSt6vectorIPNS0_10FuncParentESaIS7_EESt3mapI6StringPvSt4lessISC_ESaISt4pairIKSC_SD_EEEE8__func__
1056977396 00000007 d _ZZN3JCA3FNC8LedStrip6updateER2tmE8__func__
1056977403 00000009 d _ZZN3JCA3FNC8LedStripC4Ehht6StringE8__func__
1056974289 00000007 d _ZZN3JCA3FNC9AcDimmers6CreateEN11ArduinoJson8V741PB2210JsonObjectES4_RSt6vectorIPNS0_10FuncParentESaIS7_EESt3mapI6StringPvSt4lessISC_ESaISt4pairIKSC_SD_EEEE8__func__
1056974296 00000007 d _ZZN3JCA3FNC9AcDimmers6updateER2tmE8__func__
1056974303 00000010 d _ZZN3JCA3FNC9AcDimmersC4EhPhh6StringE8__func__
1056976141 00000007 d _ZZN3JCA3FNC9DaySelect6CreateEN11ArduinoJson8V741PB2210JsonObjectES4_RSt6vectorIPNS0_10FuncParentESaIS7_EESt3mapI6StringPvSt4lessISC_ESaISt4pairIKSC_SD_EEEE8__func__
1056976148 00000007 d _ZZN3JCA3FNC9DaySelect6updateER2tmE8__func__
1056976155 00000010 d _ZZN3JCA3FNC9DaySelectC4E6StringE8__func__
1056973915 00000011 d _ZZN3JCA3IOT11FuncHandler10loadValuesEvE8__func__
1056973926 00000011 d _ZZN3JCA3IOT11FuncHandler10saveValuesEvE8__func__
1056973937 00000014 d _ZZN3JCA3IOT11FuncHandler13saveFunctionsEvE8__func__
1056973951 00000006 d _ZZN3JCA3IOT11FuncHandler5setupEvE8__func__
1056973908 00000007 d _ZZN3JCA3IOT11FuncHandler6updateER2tmE8__func__
1056973957 00000010 d _ZZN3JCA3IOT11FuncHandler9checkLinkE6StringRsS2_S3_N11ArduinoJson8V741PB229JsonArrayEE8__func__
1056973888 00000010 d _ZZN3JCA3IOT11FuncHandler9getValuesERN11ArduinoJson8V741PB2210JsonObjectEE8__func__
1056973898 00000010 d _ZZN3JCA3IOT11FuncHandler9setValuesERN11ArduinoJson8V741PB2210JsonObjectEE8__func__
1056978672 00000005 d _ZZN3JCA3IOT11WiFiConnect4initEvE8__func__
1056978665 00000007 d _ZZN3JCA3IOT11WiFiConnect6handleEvE8__func__
1056986426 00000011 d _ZZN3JCA3IOT6Server10doWsUpdateEP20AsyncWebSocketClientE8__func__
1056979876 00000011 d _ZZN3JCA3IOT6Server10readConfigEvE8__func__
1056986437 00000013 d _ZZN3JCA3IOT6Server12wsHandleDataEP20AsyncWebSocketClientPvPhjE8__func__
1056978697 00000017 d _ZZN3JCA3IOT6Server16onRestApiRequestEP21AsyncWebServerRequestRN11ArduinoJson8V741PB2211JsonVariantEE8__func__
1056980648 00000017 d _ZZN3JCA3IOT6Server16onWebConnectPostEP21AsyncWebServerRequestE8__func__
1056979949 00000017 d _ZZN3JCA3IOT6Server16udpPacketHandlerE14AsyncUDPPacketE8__func__
1056979846 00000018 d _ZZN3JCA3IOT6Server17writeSystemConfigEvE8__func__
1056980604 00000022 d _ZZN3JCA3IOT6Server21onWebSystemUpdateDataEP21AsyncWebServerRequest6StringjPhjbE8__func__
1056980626 00000022 d _ZZN3JCA3IOT6Server21onWebSystemUploadDataEP21AsyncWebServerRequest6StringjPhjbE8__func__
1056980581 00000023 d _ZZN3JCA3IOT6Server22replaceSystemWildcardsERK6StringE8__func__
1056980557 00000024 d _ZZN3JCA3IOT6Server23replaceConnectWildcardsERK6StringE8__func__
1056979871 00000005 d _ZZN3JCA3IOT6Server4initEvE8__func__
1056979864 00000007 d _ZZN3JCA3IOT6Server6handleEvE8__func__
1056986450 00000010 d _ZZN3JCA3IOT6Server9onWsEventEP14AsyncWebSocketP20AsyncWebSocketClient12AwsEventTypePvPhjE8__func__
1056979887 00000007 d _ZZN3JCA3IOT6ServerC4EPKcttS3_S3_mbE8__func__
1057056877 00000011 d _ZZN3JCA3SYS10TimerESP3210autoReloadEhbE8__func__
1057056888 00000013 d _ZZN3JCA3SYS10TimerESP3212restartTimerEhyE8__func__
1057056901 00000009 d _ZZN3JCA3SYS10TimerESP328addTimerEbbbE8__func__
1057062452 00000017 d _ZZN3JCA3SYS16EspErrorDebugOutEiNS0_14DEBUGOUT_FLAGSEE8__func__
1056972740 00000005 d _ZZN3JCA3SYS8DebugOut4initEtmE8__func__
1057057141 00000009 d _ZZN3JCA3SYS9PwmOutput8writePinEhfE8__func__
1056994562 00000070 d _ZZN3nvs11PageManager4loadEPNS_9PartitionEjjE19__PRETTY_FUNCTION__
1056994254 00000092 d _ZZN3nvs7Storage9writeItemEhNS_8ItemTypeEPKcPKvjE19__PRETTY_FUNCTION__
1073514384 00000001 b _ZZN6StringixEjE19dummy_writable_char
1073495800 00000024 V _ZZNK11ArduinoJson8V741PB2220DeserializationError5c_strEvE8messages
1057056230 00000011 d _ZZNKUlvE_clEvE19__PRETTY_FUNCTION__
1056970584 00000008 V _ZZNSt19_Sp_make_shared_tag5_S_tiEvE5__tag
1074976772 00000016 t _ZZZN21AsyncWebServerRequest10_parseLineEvENKUlvE_clEvENKUlvE_clEv$isra$1
1074976772 00000016 t _ZZZN21AsyncWebServerRequest7_onDataEPvjENKUlvE_clEvENKUlvE_clEv$isra$0
1073949180 00000148 T abort
1073743384 00000008 A abs
1073517464 00000004 b ackno
1073537020 00000004 B adc_ana_conf_org
1074454572 00000054 T adc_cal_offset
1057020512 00000080 D adc_channel_io_map
1074452964 00000329 T adc_common_gpio_init
1057041928 00000952 d adc_efuse_raw_map
1074454452 00000117 T adc_get_calibration_offset
1074480964 00000343 T adc_hal_arbiter_config
1074481736 00000030 T adc_hal_calibration_init
1074481544 00000190 T adc_hal_convert
1074481800 00000476 T adc_hal_self_calibration
1074481768 00000030 T adc_hal_set_calibration_param
1074481308 00000234 T adc_hal_set_controller
1074480712 00000062 t adc_ll_rtc_start_convert$isra$1$part$2
1074480776 00000071 t adc_ll_set_atten
1074480576 00000135 t adc_ll_set_calibration_param
1074452776 00000087 t adc_rtc_chan_init$part$4
1074452908 00000055 T adc_set_clk_div
1074453296 00000231 T adc1_config_channel_atten
1073515196 00000004 b adc1_dma_lock
1074453700 00000192 T adc1_get_raw
1074453624 00000073 T adc1_lock_release
1074453528 00000096 T adc1_rtc_mode_acquire
1074982580 00000005 T adc2_cal_include
1074453892 00000161 T adc2_config_channel_atten
1074454056 00000239 T adc2_get_raw
1074608960 00000014 t adc2_init_code_calibration
1074979576 00000007 T adc2_wifi_acquire
1074979584 00000007 T adc2_wifi_release
1074436408 00000103 W adcAttachPin
1073521996 00000004 b add_count
1074847896 00000177 t add_fdes
1074565648 00000384 t add_offer_options
1074657340 00000088 t add_sub_mpi
1074984260 00000026 t add32
1074984200 00000059 t add64
1074705500 00000083 T addba_timeout_process
1074583220 00000269 t adjust_boot_time
1074619576 00000103 T aes_128_cbc_decrypt
1074619472 00000103 T aes_128_cbc_encrypt
1074653852 00000238 T aes_ccm_ad
1074653636 00000216 T aes_ccm_ae
1074653224 00000080 t aes_ccm_auth
1074653432 00000202 t aes_ccm_auth_start$constprop$3
1074653304 00000127 t aes_ccm_encr$isra$0
1074619428 00000021 T aes_decrypt
1074619452 00000018 T aes_decrypt_deinit
1074619376 00000052 T aes_decrypt_init
1074619332 00000021 T aes_encrypt
1074619356 00000018 T aes_encrypt_deinit
1074619280 00000052 T aes_encrypt_init
1074819312 00000026 T aes_hal_mode_init
1074819392 00000049 T aes_hal_read_iv
1074819340 00000052 T aes_hal_set_iv
1074819136 00000119 T aes_hal_setkey
1074819288 00000023 T aes_hal_transform_dma_finish
1074819256 00000031 T aes_hal_transform_dma_start
1074819444 00000016 T aes_hal_wait_done
1074620664 00000259 T aes_unwrap
1074620428 00000236 T aes_wrap
1073913316 00000546 T agc_reg_init
1073518360 00000004 b alloc_failed_callback
1074497612 00000152 t alloc_socket$part$7
1073517776 00000004 b allrouters
1073517780 00000004 b allsystems
1074704896 00000098 T ampdu_alloc_rx_ba_index
1074998144 00000092 T ampdu_dispatch
1074998368 00000121 T ampdu_dispatch_all
1074998240 00000121 T ampdu_dispatch_as_many_as_possible
1074984764 00000059 T ampdu_dispatch_movement
1074998496 00000185 T ampdu_dispatch_upto
1074704592 00000045 T ampdu_free_rx_ba_index
1074436512 00000070 W analogRead
1074436256 00000022 W analogSetClockDiv
1074436328 00000078 W analogSetPinAttenuation
1073522538 00000001 B ap_no_lr
1074696872 00000030 T ap_rx_cb
1073522140 00000004 B ap_rxcb
1073515180 00000004 b apb_change_callbacks
1073515176 00000004 b apb_change_lock
1061421056 A APB_SARADC
1073515984 00000004 b api_lock_sem
1073515988 00000004 b api_sync_sem
1074439920 00000040 T app_main
1074584548 00000054 t append_arg$constprop$2
1073517532 00000240 b arp_table
1073948196 00000037 t assert_valid_block
1073526204 00000048 B assoc_ie_buf
1074899880 00000021 T atexit
1074899904 00000016 T atoi
1074899944 00000016 T atol
1074437040 00000022 W attachInterruptArg
1073495756 00000004 D AWSC_PING_PAYLOAD
1073507904 00000144 D bars
1073518352 00000004 b base$5584
1074846852 00000074 t base_from_object
1073518384 00000006 b base_mac_addr
1075009096 00000192 t base_node_add_handler
1074844568 00000076 t base_of_encoded_value
1073517856 00000004 b base_time
1074439492 00000210 T base64_encode_block
1074439704 00000069 T base64_encode_blockend
1074439776 00000036 T base64_encode_chars
1074439468 00000023 T base64_encode_value
1074979532 00000012 T base64_init_encodestate
1057069892 00000034 d basefix$4587
1073502612 00000012 D BasicOFDMSched
1073911896 00000128 T bb_bss_cbw40
1073909396 00000105 T bb_bss_cbw40_ana
1074829492 00000132 T bb_init
1073913940 00000219 T bb_reg_init
1073502652 00000004 D BcnInterval
1073523184 00000004 B BcnSendTick
1073523350 00000002 B bias_ref_code
1074650540 00000015 T bin_clear_free
1057069404 00000016 d blanks$5008
1057070612 00000016 d blanks$5012
1057066404 00000016 d blanks$5029
1057067780 00000016 d blanks$5044
1057041748 00000004 d BLK_VERSION_MINOR
1074659940 00000452 t block_cipher_df
1074457092 00000276 T bootloader_common_check_chip_validity
1074457368 00000044 T bootloader_common_get_active_otadata
1074457032 00000020 T bootloader_common_ota_select_crc
1074979592 00000025 T bootloader_common_ota_select_invalid
1074457052 00000038 T bootloader_common_ota_select_valid
1074979620 00000077 T bootloader_common_select_otadata
1074979700 00000005 T bootloader_debug_buffer
1073894932 00000032 T bootloader_execute_flash_command
1073894492 00000440 T bootloader_flash_execute_command_common
1074457556 00000047 T bootloader_flash_read
1074608988 00000016 T bootloader_flash_update_id
1074608976 00000011 T bootloader_init_mem
1074457428 00000103 T bootloader_mmap
1074457412 00000016 T bootloader_mmap_get_free_pages
1074457532 00000024 T bootloader_munmap
1073894964 00000042 T bootloader_read_flash_id
1074458980 00000046 T bootloader_sha256_data
1074459028 00000066 T bootloader_sha256_finish
1074458944 00000034 T bootloader_sha256_start
1057047892 00000032 d brainpoolP256r1_a
1057047860 00000032 d brainpoolP256r1_b
1057047828 00000032 d brainpoolP256r1_gx
1057047796 00000032 d brainpoolP256r1_gy
1057047764 00000032 d brainpoolP256r1_n
1057047924 00000032 d brainpoolP256r1_p
1057047668 00000048 d brainpoolP384r1_a
1057047620 00000048 d brainpoolP384r1_b
1057047572 00000048 d brainpoolP384r1_gx
1057047524 00000048 d brainpoolP384r1_gy
1057047476 00000048 d brainpoolP384r1_n
1057047716 00000048 d brainpoolP384r1_p
1057047348 00000064 d brainpoolP512r1_a
1057047284 00000064 d brainpoolP512r1_b
1057047220 00000064 d brainpoolP512r1_gx
1057047156 00000064 d brainpoolP512r1_gy
1057047092 00000064 d brainpoolP512r1_n
1057047412 00000064 d brainpoolP512r1_p
1073517980 00000004 b broadcast_dhcps
1074482276 00000227 T brownout_hal_config
1073536456 00000020 B bt_wifi_chan_data
1074982884 00000058 t buf_shift_right
1073523992 00000024 b bus
1073772744 00000018 A bzero
1073843564 A Cache_Allocate_SRAM
1073843888 A Cache_Dbus_MMU_Set
1073898832 00000014 t cache_disable$isra$2
1073843304 A Cache_Disable_DCache
1073843244 A Cache_Disable_ICache
1073898816 00000014 t cache_enable$isra$1
1073843544 A Cache_Enable_DCache
1073843700 A Cache_Ibus_MMU_Set
1073840868 A Cache_Invalidate_Addr
1073841196 A Cache_Invalidate_DCache_All
1073841184 A Cache_Invalidate_ICache_All
1073843516 A Cache_Resume_DCache
1073843420 A Cache_Resume_ICache
1073840244 A Cache_Set_DCache_Mode
1073840188 A Cache_Set_ICache_Mode
1073843460 A Cache_Suspend_DCache
1073843364 A Cache_Suspend_ICache
1073841096 A Cache_WriteBack_Addr
1073841220 A Cache_WriteBack_All
1074676396 00000045 t calculate_rinv
1073899292 00000290 T call_start_cpu0
1073949724 00000020 T calloc
1073920848 00000020 t calloc_internal_wrapper
1073500524 00000024 D ccmp
1074640804 00000275 t ccmp_aad_nonce
1074780848 00000142 T ccmp_decap
1074641080 00000178 T ccmp_decrypt
1074780740 00000108 T ccmp_encap
1074641260 00000256 T ccmp_encrypt
1073949632 00000010 T cfree
1073909520 00000054 T chan_to_freq
1074828748 00000067 T chan14_mic_cfg
1073523340 00000001 B chan14_mic_en
1073537028 00000020 B channel_timer
1074748740 00000040 T check_bss_queue
1074460652 00000032 t check_chip_pointer_default
1073906600 00000023 t check_lock_nonzero
1074719264 00000028 T chip_disable
1073502841 00000001 D chip_eco_en
1074719232 00000028 T chip_enable
1073512664 00000003 d chip_name
1073511796 00000003 d chip_name
1073511664 00000005 d chip_name
1073512792 00000008 d chip_name
1073512532 00000005 d chip_name
1073512400 00000005 d chip_name
1073512252 00000008 d chip_name
1074822760 00000158 T chip_v7_set_chan
1074823036 00000028 T chip_v7_set_chan_ana
1074826916 00000067 T chip_v7_set_chan_misc
1074822920 00000114 T chip_v7_set_chan_offset
1073536942 00000078 B chip7_phy_init_ctrl
1073536672 00000228 B chip7_sleep_params
1074766444 00000050 T chm_acquire_lock
1074766380 00000064 T chm_cancel_op
1074766244 00000038 T chm_deinit
1074766308 00000040 T chm_end_op
1074766348 00000031 T chm_end_op_timeout_process
1074766620 00000034 T chm_get_chan_info
1074766496 00000013 T chm_get_current_channel
1074766512 00000013 T chm_get_home_channel
1074766908 00000184 T chm_init
1074990396 00000026 T chm_is_at_home_channel
1074766164 00000080 T chm_mhz2num
1074766284 00000022 T chm_release_lock
1074767372 00000064 T chm_return_home_channel
1074766676 00000222 T chm_set_current_channel
1074766536 00000084 T chm_set_home_channel
1074767316 00000050 T chm_start_op
1074983296 00000055 T cipher_type_map_public_to_supp
1074642700 00000088 T cipher_type_map_supp_to_public
1074897916 00000076 T cJSON_Delete
1074847352 00000187 t classify_object_over_fdes
1074905292 00000024 T cleanup_glue
1074440028 00000022 T cleanupFunctional
1074746924 00000047 T clear_bss_queue
1073524016 00000002 b clear_bus_cnt
1074988436 00000005 t clear_intr_wrapper
1073517968 00000004 b client_address
1073517964 00000004 b client_address_plus
1074924220 00000021 T close
1074484544 00000072 T closedir
1074771852 00000130 T cnx_add_rc
1074771108 00000160 T cnx_add_to_blacklist
1074770428 00000014 T cnx_assoc_timeout
1074773828 00000038 T cnx_assoc_timeout_process
1074779188 00000614 T cnx_auth_done
1074770412 00000014 T cnx_auth_timeout
1074773768 00000049 T cnx_auth_timeout_process
1074776400 00000112 T cnx_beacon_timeout_process
1074773976 00000524 T cnx_bss_alloc
1074770772 00000156 T cnx_bss_init
1074769340 00000086 T cnx_can_do_obss_scan
1074770928 00000044 T cnx_check_bssid_in_blacklist
1074771272 00000087 T cnx_clear_blacklist
1074770444 00000014 T cnx_coexist_timeout
1074770460 00000070 T cnx_coexist_timeout_process
1074772828 00000052 T cnx_connect_next_ap
1074768156 00000014 T cnx_connect_timeout
1074773652 00000105 T cnx_connect_timeout_process
1074768188 00000016 T cnx_csa_fn
1074770580 00000179 T cnx_csa_fn_process
1074768172 00000014 T cnx_handshake_timeout
1074773876 00000074 T cnx_handshake_timeout_process
1074775344 00000130 T cnx_node_alloc
1074990548 00000073 T cnx_node_is_existing
1074778044 00000614 T cnx_node_join
1074777664 00000336 T cnx_node_leave
1074775476 00000183 T cnx_node_remove
1074990440 00000098 T cnx_node_search
1074769444 00000102 T cnx_obss_scan
1074778884 00000256 T cnx_obss_scan_done_cb
1074769564 00000077 T cnx_obss_scan_timeout
1074771788 00000057 T cnx_rc_search
1074985212 00000022 T cnx_rc_update_age
1074774608 00000099 T cnx_rc_update_rssi
1074774708 00000102 T cnx_rc_update_state_metric
1074771988 00000069 T cnx_remove_all_rc
1074770976 00000119 T cnx_remove_from_blacklist
1074772972 00000160 T cnx_remove_rc
1074774504 00000101 T cnx_remove_rc_except
1074777312 00000334 T cnx_sta_associated
1074773156 00000488 T cnx_sta_connect_cmd
1074767436 00000025 T cnx_sta_connect_led_timer_cb
1074776704 00000578 T cnx_sta_leave
1074775660 00000044 T cnx_sta_pm
1074769712 00000698 T cnx_sta_scan_cmd
1074772888 00000076 T cnx_start_handoff_cb
1074778676 00000188 T cnx_start_obss_scan
1074774884 00000030 T cnx_update_bss
1074775708 00000686 T cnx_update_bss_more
1074988468 00000005 t coex_condition_set_wrapper
1074988460 00000005 t coex_deinit_wrapper
1074988564 00000005 t coex_disable_wrapper
1074988556 00000007 t coex_enable_wrapper
1073921228 00000007 t coex_event_duration_get_wrapper
1074988452 00000007 t coex_init_wrapper
1074988492 00000007 t coex_pti_get_wrapper
1074988508 00000007 t coex_schm_curr_period_get_wrapper
1074988516 00000007 t coex_schm_curr_phase_get_wrapper
1074988548 00000007 t coex_schm_curr_phase_idx_get_wrapper
1074988524 00000007 t coex_schm_curr_phase_idx_set_wrapper
1074988500 00000007 t coex_schm_interval_get_wrapper
1073921236 00000007 t coex_schm_interval_set_wrapper
1074988532 00000005 t coex_schm_status_bit_clear_wrapper
1074988540 00000005 t coex_schm_status_bit_set_wrapper
1073921212 00000007 t coex_status_get_wrapper
1074988484 00000007 t coex_wifi_channel_set_wrapper
1073921220 00000007 t coex_wifi_release_wrapper
1074988476 00000007 t coex_wifi_request_wrapper
1074806456 00000010 T config_get_wifi_ampdu_rx_enable
1074806468 00000010 T config_get_wifi_ampdu_tx_enable
1074806480 00000011 T config_get_wifi_amsdu_tx_enable
1074806644 00000010 T config_get_wifi_beacon_max_len
1074806576 00000010 T config_get_wifi_cache_tx_buffer_num
1074806528 00000010 T config_get_wifi_dynamic_rx_buffer_num
1074806564 00000010 T config_get_wifi_dynamic_tx_buffer_num
1074806684 00000011 T config_get_wifi_espnow_max_encrypt_num
1074806668 00000014 T config_get_wifi_feature_capabilities
1074806656 00000010 T config_get_wifi_mgmt_sbuf_num
1074806492 00000010 T config_get_wifi_nvs_enable
1074806504 00000010 T config_get_wifi_rx_baw
1074806712 00000011 T config_get_wifi_sta_disconnected_pm
1074806516 00000010 T config_get_wifi_static_rx_buffer_num
1074806552 00000010 T config_get_wifi_static_tx_buffer_num
1074806632 00000010 T config_get_wifi_task_core_id
1074806596 00000033 T config_get_wifi_task_stack_size
1074806540 00000010 T config_get_wifi_tx_buffer_type
1074806696 00000014 T config_is_cache_tx_buf_enabled
1073521980 00000004 b config_methods
1073522415 00000001 B connect_scan_flag
1074485116 00000029 T console_access
1074484988 00000028 T console_close
1074485148 00000032 T console_end_select
1074485048 00000033 T console_fcntl
1074484964 00000024 T console_fstat
1074485084 00000029 T console_fsync
1074484900 00000031 T console_open
1074485016 00000032 T console_read
1074485304 00000052 t console_start_select
1074485244 00000029 T console_tcdrain
1074485276 00000028 T console_tcflush
1074485216 00000028 T console_tcgetattr
1074485180 00000033 T console_tcsetattr
1074484932 00000032 T console_write
1074982824 00000018 t const_time_is_zero
1074982844 00000039 t const_time_select_bin
1073523339 00000001 B corr_cca_thr
1074819840 00000210 T correct_rfpll_offset
1073499750 00000230 D country_info_24ghz
1073939352 00000034 T cpu_hal_set_breakpoint
1073939388 00000008 T cpu_hal_set_vecbase
1073939260 00000089 T cpu_hal_set_watchpoint
1073813980 A crc32_le
1073772684 A creat
1074565476 00000170 t create_msg
1074651772 00000024 T crypto_bignum_add
1074652076 00000012 T crypto_bignum_bits
1074652056 00000017 T crypto_bignum_cmp
1074651680 00000018 T crypto_bignum_deinit
1074651896 00000029 T crypto_bignum_div
1074651820 00000028 T crypto_bignum_exptmod
1074651580 00000022 T crypto_bignum_init
1074651604 00000040 T crypto_bignum_init_set
1074651644 00000034 T crypto_bignum_init_uint
1074651848 00000024 T crypto_bignum_inverse
1074652136 00000024 T crypto_bignum_is_odd
1074652112 00000022 T crypto_bignum_is_one
1074652088 00000022 T crypto_bignum_is_zero
1074652192 00000123 T crypto_bignum_legendre
1074651796 00000024 T crypto_bignum_mod
1074651928 00000040 T crypto_bignum_mulmod
1074652160 00000032 T crypto_bignum_rand
1074652020 00000035 T crypto_bignum_rshift
1074651968 00000052 T crypto_bignum_sqrmod
1074651872 00000024 T crypto_bignum_sub
1074651700 00000072 T crypto_bignum_to_bin
1074652316 00000023 T crypto_ec_deinit
1074983600 00000008 T crypto_ec_get_b
1074983592 00000008 T crypto_ec_get_order
1074983584 00000007 T crypto_ec_get_prime
1074652340 00000051 T crypto_ec_init
1074652428 00000013 T crypto_ec_order_len
1074652632 00000058 T crypto_ec_point_add
1074653204 00000017 T crypto_ec_point_cmp
1074652860 00000212 T crypto_ec_point_compute_y_sqr
1074652456 00000018 T crypto_ec_point_deinit
1074652536 00000094 T crypto_ec_point_from_bin
1074652392 00000024 T crypto_ec_point_init
1074652820 00000040 T crypto_ec_point_invert
1074653072 00000012 T crypto_ec_point_is_at_infinity
1074653084 00000119 T crypto_ec_point_is_on_curve
1074652692 00000128 T crypto_ec_point_mul
1074652476 00000059 T crypto_ec_point_to_bin
1074652416 00000012 T crypto_ec_prime_len
1074652444 00000012 T crypto_ec_prime_len_bits
1074651560 00000017 t crypto_rng_wrapper
1074660392 00000195 t ctr_drbg_update_internal
1073535772 00000008 B ctx
1073515248 00000004 b curr_partition$5697
1074716044 00000031 T current_task_is_wifi_task
1073517508 00000004 b current_timeout_due_time
1057047076 00000016 d curve25519_part_of_n
1056990992 00000120 D dac_offset
1074454296 00000153 T dac_output_disable
1073910396 00000103 T dac_rate_set
1057062768 00000048 d DAYS_IN_MONTH
1074985440 00000005 T dbg_lmac_init
1074799288 00000018 T dbg_lmac_ps_statis_reset
1073521992 00000004 b dbl_count
1074629128 00000038 t debug_print_bignum$isra$6
1073503728 00000032 d default_chip
1073503954 00000006 d default_flash_chip_dummy
1056987580 00000068 d default_rates$9271
1073496232 00000032 d default_registered_chips
1073524476 00000036 B default_router_list
1073503712 00000016 d default_spiflash_rom_api
1075013020 00000030 t default_walker
1057039296 00000012 d defaults$5047
1074437192 00000014 T delay
1073898704 00000016 t delay_us
1073898904 00000016 t delay_us
1074437208 00000079 T delayMicroseconds
1073524872 00000480 B destination_cache
1073896620 00000101 t detect_spi_flash_chip
1057046480 00000001 d dh_group5_generator
1057046096 00000192 d dh_group5_order
1057046288 00000192 d dh_group5_prime
1057046064 00000032 d dh_groups
1074641516 00000018 T dh_groups_get
1074532860 00000214 t dhcp_bind
1074542176 00000040 T dhcp_cleanup
1074543004 00000438 T dhcp_coarse_tmr
1074533448 00000279 t dhcp_create_msg
1074533288 00000054 t dhcp_dec_pcb_refcount
1074540628 00000268 t dhcp_discover
1057011943 00000005 d dhcp_discover_request_options
1074543624 00000010 T dhcp_fine_timeout_cb
1074543444 00000179 T dhcp_fine_tmr
1074532628 00000232 t dhcp_handle_ack
1074533344 00000104 t dhcp_inc_pcb_refcount
1074564800 00000052 T dhcp_ip_addr_erase
1074564660 00000075 T dhcp_ip_addr_restore
1074564736 00000062 T dhcp_ip_addr_store
1074542216 00000072 T dhcp_network_changed
1074533128 00000054 t dhcp_option
1074533184 00000021 t dhcp_option_byte$part$2
1074533844 00000076 t dhcp_option_client_id
1074533728 00000115 t dhcp_option_hostname
1074533208 00000078 t dhcp_option_long
1074533076 00000052 t dhcp_option_short
1074532560 00000065 t dhcp_option_trailer
1073517524 00000004 b dhcp_pcb
1073517520 00000001 b dhcp_pcb_refcount
1074533920 00000294 t dhcp_reboot
1074540896 00001203 t dhcp_recv
1074543636 00000012 T dhcp_release
1074542552 00000273 T dhcp_release_and_stop
1074542288 00000262 T dhcp_renew
1073524408 00000013 B dhcp_rx_options_given
1073524424 00000052 B dhcp_rx_options_val
1074540268 00000358 t dhcp_select
1074981396 00000014 T dhcp_set_cb
1074574004 00000091 T dhcp_set_ntp_servers
1074981372 00000024 t dhcp_set_state
1074542100 00000073 T dhcp_set_struct
1074542828 00000173 T dhcp_start
1074543648 00000010 T dhcp_stop
1074981412 00000050 T dhcp_supplied_address
1073517936 00000004 b dhcps_cb
1074567920 00000150 T dhcps_coarse_tmr
1073517940 00000001 b dhcps_dns
1074568072 00000022 T dhcps_dns_setserver
1073496636 00000004 d dhcps_lease_time
1073517984 00000004 b dhcps_netif
1073496632 00000001 d dhcps_offer
1074566032 00000086 T dhcps_option_info
1074566228 00000024 T dhcps_pbuf_alloc
1073517944 00000012 b dhcps_poll
1074567448 00000010 T dhcps_set_new_lease_cb
1074566120 00000107 T dhcps_set_option_info
1074567460 00000378 T dhcps_start
1074567840 00000077 T dhcps_stop
1074584604 00001544 t diag_log_add
1074618908 00000094 t digest_vector
1074436632 00000066 T digitalPinToAnalogChannel
1074436584 00000048 T digitalPinToTouchChannel
1074436840 00000013 W digitalRead
1074436824 00000014 W digitalWrite
1074476020 00000075 t disable_all_wdts
1073911356 00000067 T disable_wifi_agc
1074437096 00000018 T disableCore0WDT
1073743392 00000038 A div
1074504952 00000032 T dns_clear_servers
1074981120 00000005 T dns_init
1073517972 00000004 b dns_server
1073517076 00000072 b dns_servers
1074504908 00000042 T dns_setserver
1074505232 00000040 t do_memp_free_pool$isra$2
1074505180 00000049 t do_memp_malloc_pool$isra$0
1074498108 00000107 t done_socket
1074637960 00000124 T dragonfly_get_random_qr_qnr
1074638084 00000376 T dragonfly_is_quadratic_residue_blind
1074638460 00000178 T dragonfly_sqrt
1073741140 A dummy_len_plus
1073520896 00000020 b dump_hdr$7181
1074650228 00000044 T dup_binstr
1074983652 00000030 T eap_deinit_prev_method
1073521984 00000004 b eap_methods
1074654204 00000060 T eap_peer_blob_deinit
1074654128 00000074 T eap_peer_config_deinit
1074651136 00000185 t eap_peer_sm_deinit
1074654092 00000036 T eap_peer_unregister_methods
1074654264 00000016 T eap_sm_abort
1074647328 00000289 T eapol_txcb
1073535780 00000192 B eb_space
1073507756 00000144 D eb_txdesc_space
1074828456 00000110 T eco0_tx_table_set
1074663512 00000576 t ecp_add_mixed
1074662656 00000585 t ecp_double_jac
1074661288 00000016 t ecp_drbg_random
1074661304 00000096 t ecp_drbg_seed
1074670284 00000232 t ecp_mod_koblitz$constprop$0
1074670576 00000202 t ecp_mod_p192
1074670516 00000020 t ecp_mod_p192k1
1074669760 00000524 t ecp_mod_p224
1074670536 00000020 t ecp_mod_p224k1
1074667208 00000138 t ecp_mod_p255
1074668780 00000980 t ecp_mod_p256
1074670556 00000020 t ecp_mod_p256k1
1074667448 00001332 t ecp_mod_p384
1074667348 00000100 t ecp_mod_p521
1074664088 00001082 t ecp_mul_comb
1074661964 00000136 t ecp_normalize_jac
1074662100 00000416 t ecp_normalize_jac_many
1074661828 00000136 t ecp_randomize_jac
1074661756 00000071 t ecp_randomize_mxz
1074661400 00000055 t ecp_safe_invert_jac
1074662516 00000086 t ecp_select_comb
1057047000 00000012 d ecp_x25519_bad_point_1
1057046988 00000012 d ecp_x25519_bad_point_2
1061265408 A EFUSE
1073900908 00000031 T efuse_hal_chip_revision
1073900940 00000039 T efuse_hal_flash_encryption_enabled
1073900980 00000017 T efuse_hal_get_major_chip_version
1073901000 00000031 T efuse_hal_get_minor_chip_version
1074610924 00000340 t elf_add_note$constprop$15
1074611264 00000063 t elf_add_regs$constprop$14
1074611392 00000210 t elf_add_segment$constprop$17
1074611604 00000120 t elf_process_note_segment$constprop$9
1074611328 00000064 t elf_write_segment_header$constprop$18
1074983536 00000007 T eloop_cancel_timeout
1074983544 00000007 T eloop_register_timeout
1073514368 00000016 B emptyString
1073915872 00000096 T en_pwdet
1073502856 00000001 d enable_exception_fde_sorting
1073911424 00000067 T enable_wifi_agc
1074437076 00000018 T enableCore0WDT
1073898920 00000030 t end
1074459096 00000464 t ensure_partitions_loaded$part$0
1074671916 00000154 t entropy_gather_internal$part$0
1074671776 00000139 t entropy_update
1073921160 00000007 t env_is_chip_wrapper
1073524256 00000004 B environ
1074570420 00000283 t err_tcp
1074573788 00000035 T err_to_errno
1057016556 00000068 d err_to_errno_table
1075003660 00000306 T esf_buf_alloc
1074782620 00000025 T esf_buf_alloc_default_handler
1075002060 00000394 T esf_buf_alloc_dynamic
1074782588 00000025 T esf_buf_alloc_dynamic_default_handler
1074782752 00000138 T esf_buf_free_static
1075000484 00000220 T esf_buf_recycle
1074782652 00000026 T esf_buf_recycle_default_handler
1074782892 00000021 T esf_buf_setdown
1074782948 00000331 T esf_buf_setup
1074782688 00000063 T esf_buf_setup_static
1073514196 00000001 B ESP
1074676116 00000015 T esp_aes_acquire_hardware
1073907908 00000036 t esp_aes_complete_isr
1074676232 00000162 T esp_aes_crypt_cbc
1074676148 00000082 T esp_aes_crypt_ecb
1074616472 00000014 t esp_aes_decrypt
1074679348 00000033 T esp_aes_dma_done
1074679196 00000149 T esp_aes_dma_start
1074675168 00000062 t esp_aes_dma_wait_complete
1074616488 00000014 t esp_aes_encrypt
1074674860 00000019 T esp_aes_free
1074982680 00000007 t esp_aes_gmac
1074674840 00000018 T esp_aes_init
1074675068 00000098 t esp_aes_isr_initialise
1074675232 00000882 t esp_aes_process_dma
1074676132 00000013 T esp_aes_release_hardware
1074674880 00000052 T esp_aes_setkey
1074616504 00000020 t esp_aes_unwrap
1074674984 00000081 t esp_aes_validate_input
1074616524 00000020 t esp_aes_wrap
1056964640 00000256 R esp_app_desc
1073900208 00000061 T esp_backtrace_get_next_frame
1073900644 T esp_backtrace_get_start
1073900604 00000040 T esp_backtrace_print
1073900272 00000332 T esp_backtrace_print_from_frame
1074577972 00000052 T esp_base_mac_addr_get
1074577892 00000079 T esp_base_mac_addr_set
1074477352 00000026 T esp_brownout_init
1073900064 00000034 T esp_cache_err_get_cpuid
1074475660 00000068 T esp_cache_err_int_init
1073902392 00000024 T esp_clk_apb_freq
1073902376 00000016 T esp_clk_cpu_freq
1074474920 00000285 W esp_clk_init
1074576272 00000013 T esp_clk_slowclk_cal_get
1074894812 00000011 t esp_clk_slowclk_cal_get_wrapper
1074576256 00000016 T esp_clk_slowclk_cal_set
1073895200 00000037 T esp_config_data_cache_mode
1073895148 00000052 T esp_config_instruction_cache_mode
1074613436 00000081 T esp_core_dump_check_stack
1074613708 00000065 T esp_core_dump_check_task
1074614944 00000046 T esp_core_dump_checksum_finish
1074614852 00000018 T esp_core_dump_checksum_init
1074982604 00000007 T esp_core_dump_checksum_size
1074614872 00000071 T esp_core_dump_checksum_update
1074611724 00001315 t esp_core_dump_do_write_elf_pass$constprop$3
1074614844 00000008 T esp_core_dump_elf_version
1074609836 00000055 t esp_core_dump_flash_custom_write
1074610368 00000070 T esp_core_dump_flash_init
1074609892 00000271 t esp_core_dump_flash_write_data
1074610164 00000202 t esp_core_dump_flash_write_end
1074609520 00000143 t esp_core_dump_flash_write_prepare
1074609504 00000013 t esp_core_dump_flash_write_start
1074982596 00000007 T esp_core_dump_get_arch_id
1074609352 00000016 T esp_core_dump_get_current_task_handle
1074614824 00000017 T esp_core_dump_get_extra_info
1074613428 00000008 T esp_core_dump_get_isr_stack_end
1074609224 00000016 T esp_core_dump_get_next_task
1074613648 00000058 T esp_core_dump_get_stack
1074613776 00001013 T esp_core_dump_get_task_regs_dump
1074609368 00000134 T esp_core_dump_get_task_snapshot
1074609240 00000091 T esp_core_dump_get_user_ram_info
1074610580 00000314 T esp_core_dump_image_check
1074610896 00000027 T esp_core_dump_init
1074613520 00000125 T esp_core_dump_mem_seg_is_sane
1074609664 00000171 t esp_core_dump_partition_and_size_get
1074613332 00000082 T esp_core_dump_port_init
1074614792 00000029 T esp_core_dump_port_set_crashed_tcb
1074614992 00000059 T esp_core_dump_print_checksum
1074613416 00000012 T esp_core_dump_reset_fake_stacks
1074609216 00000008 T esp_core_dump_reset_tasks_snapshots_iter
1074609332 00000018 T esp_core_dump_tcb_addr_is_sane
1074610440 00000139 T esp_core_dump_to_flash
1074609004 00000212 T esp_core_dump_write
1074613040 00000290 T esp_core_dump_write_elf
1073921252 00000051 T esp_cpu_configure_region_protection
1073902360 00000014 T esp_cpu_in_ocd_debug_mode
1073902284 00000023 T esp_cpu_reset
1073902308 00000049 T esp_cpu_set_watchpoint
1073814136 A esp_crc8
1074616192 00000075 T esp_crosscore_int_init
1073907472 00000070 t esp_crosscore_int_send
1073907544 00000015 T esp_crosscore_int_send_yield
1073907412 00000058 t esp_crosscore_isr
1074580496 00000014 T esp_crypto_dma_lock_acquire
1074580512 00000014 T esp_crypto_dma_lock_release
1074580528 00000014 T esp_crypto_mpi_lock_acquire
1074580544 00000014 T esp_crypto_mpi_lock_release
1074578396 00000114 T esp_deep_sleep_wakeup_io_reset
1074475964 00000012 T esp_deregister_freertos_idle_hook_for_cpu
1074475728 00000050 t esp_deregister_freertos_idle_hook_for_cpu$part$2
1074578076 00000095 T esp_derive_local_mac
1074586320 00000066 T esp_diag_timestamp_get
1074985844 00000033 T esp_dport_access_read_buffer
1073499528 00000008 D ESP_EFUSE_BLK_VERSION_MINOR
1074608312 00000010 T esp_efuse_check_errors
1074982516 00000032 T esp_efuse_get_field_size
1073499536 00000028 D ESP_EFUSE_MAC_FACTORY
1074578024 00000049 T esp_efuse_mac_get_default
1074608244 00000067 T esp_efuse_read_block
1074608164 00000080 T esp_efuse_read_field_blob
1074608080 00000084 T esp_efuse_rtc_table_get_parsed_efuse_value
1074607992 00000086 T esp_efuse_rtc_table_get_raw_efuse_value
1074982424 00000090 T esp_efuse_rtc_table_get_tag
1074607968 00000024 T esp_efuse_rtc_table_read_calib_version
1074982572 00000007 T esp_efuse_utility_check_errors
1074608904 00000056 T esp_efuse_utility_count_once
1074608720 00000184 T esp_efuse_utility_fill_buff
1074982548 00000022 T esp_efuse_utility_get_number_of_items
1074608324 00000323 T esp_efuse_utility_process
1074608648 00000072 T esp_efuse_utility_read_reg
1073921244 00000005 t esp_empty_wrapper
1057029212 00001712 d esp_err_msg_table
1074582080 00000041 T esp_err_to_name
1073928140 00000090 t esp_error_check_failed_print
1075008824 00000034 T esp_event_handler_instance_register
1075010736 00000029 T esp_event_handler_instance_register_with
1075008796 00000028 T esp_event_handler_register
1075010704 00000029 T esp_event_handler_register_with
1075010396 00000305 T esp_event_handler_register_with_internal
1075008860 00000030 T esp_event_handler_unregister
1075011120 00000029 T esp_event_handler_unregister_with
1075010768 00000350 T esp_event_handler_unregister_with_internal
1075009640 00000288 T esp_event_loop_create
1075008928 00000040 T esp_event_loop_create_default
1075009928 00000415 T esp_event_loop_run
1075010344 00000051 t esp_event_loop_run_task
1075008892 00000034 T esp_event_post
1075011152 00000251 T esp_event_post_to
1074895216 00000020 t esp_event_post_wrapper
1074493932 00000418 T esp_event_send_internal
1074981072 00000007 W esp_event_send_legacy
1074981072 00000007 T esp_event_send_noop
1074576288 00000059 T esp_fill_random
1073898976 00000017 T esp_flash_app_disable_os_functions
1074460704 00000030 T esp_flash_app_disable_protect
1074460892 00000037 T esp_flash_app_enable_os_functions
1074460876 00000013 T esp_flash_app_init
1073511540 00000124 D esp_flash_chip_boya
1074979716 00000016 T esp_flash_chip_driver_initialized
1073511672 00000124 D esp_flash_chip_gd
1073512128 00000124 D esp_flash_chip_generic
1073512276 00000124 D esp_flash_chip_issi
1073512408 00000124 D esp_flash_chip_mxic
1073512540 00000124 D esp_flash_chip_th
1073512668 00000124 D esp_flash_chip_winbond
1073515676 00000004 B esp_flash_default_chip
1073503960 00000088 d esp_flash_default_host
1073503760 00000040 d esp_flash_default_host
1073503924 00000024 d esp_flash_encryption_default
1073897148 00000502 T esp_flash_erase_region
1073896820 00000088 T esp_flash_get_physical_size
1073511452 00000088 d esp_flash_gpspi_host
1074460736 00000138 T esp_flash_init_default_chip
1073896908 00000238 T esp_flash_init_main
1073503852 00000036 D esp_flash_noos_functions
1073897652 00000258 T esp_flash_read
1074460684 00000020 T esp_flash_read_chip_id
1073496228 00000004 D esp_flash_registered_chips
1073503800 00000036 d esp_flash_spi1_default_os_functions
1073897912 00000302 T esp_flash_write
1073898216 00000380 T esp_flash_write_encrypted
1075012912 00000013 T esp_get_free_heap_size
1075012928 00000013 T esp_get_free_internal_heap_size
1074458928 00000016 T esp_image_verify
1074616352 00000036 T esp_int_wdt_cpu_init
1074616268 00000084 T esp_int_wdt_init
1074577656 00000024 T esp_intr_alloc
1074576744 00000910 T esp_intr_alloc_intrstatus
1073902784 00000171 T esp_intr_disable
1074576724 00000019 T esp_intr_disable_source
1073902672 00000111 T esp_intr_enable
1074576704 00000019 T esp_intr_enable_source
1074577680 00000210 T esp_intr_free
1074981816 00000012 T esp_intr_get_cpu
1073902552 00000068 T esp_intr_noniram_disable
1073902620 00000052 T esp_intr_noniram_enable
1074586816 00000059 t esp_littlefs_by_label
1074586768 00000047 t esp_littlefs_by_partition
1074586388 00000026 t esp_littlefs_dir_free
1074591856 00000171 T esp_littlefs_format
1074590504 00000171 T esp_littlefs_format_partition
1074590376 00000083 t esp_littlefs_free
1074586416 00000136 t esp_littlefs_free_fd
1074589912 00000097 t esp_littlefs_get_fd_by_name
1074590676 00000718 t esp_littlefs_init
1074590460 00000043 T esp_littlefs_mounted
1057037352 00000013 D ESP_LITTLEFS_TAG
1073496648 00000004 D esp_log_default_level
1073948972 00000031 T esp_log_early_timestamp
1073949004 00000035 T esp_log_impl_lock
1073949040 00000050 T esp_log_impl_lock_timeout
1073949092 00000027 T esp_log_impl_unlock
1075014484 00000242 T esp_log_level_set
1073949120 00000059 T esp_log_timestamp
1075014728 00000046 T esp_log_writev
1073907876 00000020 T esp_mbedtls_mem_calloc
1073907896 00000010 T esp_mbedtls_mem_free
1074679108 00000017 T esp_md5_finish_ret
1074679180 00000014 T esp_md5_free
1074679164 00000014 T esp_md5_init
1074679148 00000016 T esp_md5_init_ret
1074679128 00000020 T esp_md5_update_ret
1073903128 00000304 T esp_memprot_get_active_intr_memtype
1073903432 00000270 T esp_memprot_get_fault_status
1074579356 00000087 T esp_memprot_intr_init
1074579496 00000051 T esp_memprot_is_intr_ena_any
1074579444 00000051 T esp_memprot_is_locked_any
1074981828 00000044 t esp_memprot_ll_err_to_esp_err
1074579964 00000532 T esp_memprot_set_prot
1074579548 00000121 T esp_memprot_set_prot_dram
1074579672 00000147 T esp_memprot_set_prot_iram
1074578948 00000095 t esp_memprot_set_prot_peri1$part$2
1074579820 00000141 T esp_memprot_set_prot_peri2
1074579044 00000107 t esp_memprot_set_prot_peri2$part$3
1073903704 00000060 T esp_memprot_type_to_str
1074685328 00000057 T esp_mesh_get_running_active_duty_cycle
1074685244 00000080 T esp_mesh_map_deauth
1073522212 00000176 B esp_mesh_quick_funcs
1074677288 00000033 T esp_mpi_disable_hardware_hw_op
1074677244 00000042 T esp_mpi_enable_hardware_hw_op
1074677380 00000126 T esp_mpi_exp_mpi_mod_hw_op
1074984528 00000005 T esp_mpi_hardware_words
1074677508 00000061 T esp_mpi_mul_mpi_hw_op
1074677572 00000119 T esp_mpi_mult_mpi_failover_mod_mult_hw_op
1074677324 00000055 T esp_mpi_read_result_hw_op
1073921068 00000005 T esp_mspi_pin_init
1074488736 00000275 T esp_netif_action_connected
1074489012 00000010 T esp_netif_action_disconnected
1074980828 00000005 T esp_netif_action_got_ip
1074488712 00000010 T esp_netif_action_start
1074488724 00000010 T esp_netif_action_stop
1074489128 00000071 T esp_netif_add_to_list
1074489536 00000027 t esp_netif_api_cb
1074492812 00000058 T esp_netif_attach
1074495024 00000070 t esp_netif_attach_wifi
1074495488 00000017 T esp_netif_attach_wifi_ap
1074495468 00000017 T esp_netif_attach_wifi_station
1074495508 00000056 T esp_netif_create_default_wifi_ap
1074495564 00000056 T esp_netif_create_default_wifi_sta
1074492156 00000096 T esp_netif_destroy
1074490900 00000184 t esp_netif_dhcpc_cb
1074980948 00000032 T esp_netif_dhcpc_get_status
1074493036 00000020 T esp_netif_dhcpc_start
1074490576 00000173 t esp_netif_dhcpc_start_api
1074493016 00000020 T esp_netif_dhcpc_stop
1074491084 00000094 t esp_netif_dhcpc_stop_api
1074489816 00000074 t esp_netif_dhcps_cb
1074980920 00000026 T esp_netif_dhcps_get_status
1074493896 00000033 T esp_netif_dhcps_option
1074493464 00000366 T esp_netif_dhcps_option_api
1074493056 00000020 T esp_netif_dhcps_start
1074489652 00000162 t esp_netif_dhcps_start_api
1074493076 00000020 T esp_netif_dhcps_stop
1074489892 00000045 t esp_netif_dhcps_stop_api
1074493164 00000020 T esp_netif_down
1074490752 00000146 t esp_netif_down_api
1074980864 00000014 T esp_netif_free_rx_buffer
1074981044 00000025 T esp_netif_get_event_id
1074981028 00000008 T esp_netif_get_flags
1074489424 00000097 T esp_netif_get_handle_from_ifkey
1074980844 00000008 T esp_netif_get_handle_from_netif_impl
1074493116 00000028 T esp_netif_get_hostname
1074981036 00000008 T esp_netif_get_ifkey
1074980836 00000007 T esp_netif_get_io_driver
1074493392 00000070 T esp_netif_get_ip_info
1074980852 00000010 T esp_netif_get_netif_impl
1074493348 00000042 T esp_netif_get_old_ip_info
1074491956 00000200 T esp_netif_init
1074491832 00000122 t esp_netif_ip_lost_timer
1074489344 00000079 T esp_netif_is_netif_listed
1074980980 00000024 T esp_netif_is_netif_up
1074981004 00000024 T esp_netif_is_valid_static_ip
1074489024 00000043 T esp_netif_list_lock
1074489068 00000060 T esp_netif_list_unlock
1074490416 00000024 t esp_netif_lwip_ipc_call
1074490360 00000054 t esp_netif_lwip_ipc_call_msg
1074491180 00000039 t esp_netif_lwip_remove
1074491220 00000015 t esp_netif_lwip_remove_api
1074493004 00000010 T esp_netif_netstack_buf_free
1074492992 00000010 T esp_netif_netstack_buf_ref
1074492252 00000558 T esp_netif_new
1074489312 00000031 T esp_netif_next_unsafe
1074980900 00000020 T esp_netif_receive
1074489200 00000109 T esp_netif_remove_from_list
1074493872 00000024 T esp_netif_set_dns_info
1074490264 00000096 t esp_netif_set_dns_info_api
1074492872 00000046 T esp_netif_set_driver_config
1074493096 00000020 T esp_netif_set_hostname
1074489940 00000080 t esp_netif_set_hostname_api
1074493852 00000020 T esp_netif_set_ip_info
1074490020 00000242 t esp_netif_set_ip_info_api
1074489608 00000042 t esp_netif_set_ip_old_info_api
1074492920 00000029 T esp_netif_set_mac
1074489564 00000042 T esp_netif_set_mac_api
1074493832 00000020 T esp_netif_set_old_ip_info
1074492952 00000020 T esp_netif_start
1074491236 00000479 t esp_netif_start_api
1074490532 00000042 t esp_netif_start_ip_lost_timer
1074492972 00000020 T esp_netif_stop
1074491716 00000113 t esp_netif_stop_api
1074980880 00000020 T esp_netif_transmit_wrap
1074493144 00000020 T esp_netif_up
1074490460 00000040 t esp_netif_up_api
1074490440 00000020 t esp_netif_update_default_netif
1074493184 00000161 t esp_netif_update_default_netif_lwip
1074583164 00000042 T esp_newlib_init
1074583068 00000080 T esp_newlib_locks_init
1074583676 00000008 T esp_newlib_time_init
1074456472 00000161 T esp_ota_check_rollback_is_possible
1074456636 00000198 t esp_ota_current_ota_is_workable
1073894340 00000150 T esp_ota_get_app_elf_sha256
1074456160 00000058 T esp_ota_get_app_partition_count
1074456384 00000087 T esp_ota_get_next_update_partition
1074456044 00000114 T esp_ota_get_running_partition
1074456860 00000154 T esp_ota_get_state_partition
1074457016 00000015 T esp_ota_init_app_elf_sha256
1074456848 00000012 T esp_ota_mark_app_invalid_rollback_and_reboot
1074456836 00000012 T esp_ota_mark_app_valid_cancel_rollback
1074456220 00000162 T esp_ota_set_boot_partition
1074476352 00000443 T esp_panic_handler
1074476244 00000106 T esp_panic_handler_reconfigure_wdts
1074460156 00000070 T esp_partition_erase_range
1074459684 00000070 T esp_partition_find
1074459800 00000036 T esp_partition_find_first
1074459772 00000028 T esp_partition_get
1074459756 00000014 T esp_partition_iterator_release
1074460448 00000050 T esp_partition_main_flash_region_safe
1074460228 00000092 T esp_partition_mmap
1074459560 00000124 T esp_partition_next
1074460320 00000128 T esp_partition_read
1074460036 00000060 T esp_partition_read_raw
1074459836 00000108 T esp_partition_verify
1074459944 00000091 T esp_partition_write
1074460096 00000060 T esp_partition_write_raw
1074475208 00000307 W esp_perip_clk_init
1073907300 00000008 T esp_phy_common_clock_disable
1073907292 00000008 T esp_phy_common_clock_enable
1074615052 00000078 T esp_phy_disable
1074616092 00000100 T esp_phy_enable
1074615892 00000200 T esp_phy_load_cal_and_init
1074615324 00000332 T esp_phy_load_cal_data_from_nvs
1074615264 00000060 T esp_phy_modem_deinit
1074615208 00000056 T esp_phy_modem_init
1074615656 00000235 T esp_phy_store_cal_data_to_nvs
1074982612 00000007 T esp_phy_update_country_info
1074982588 00000008 T esp_pm_impl_waiti
1074472796 00000014 t esp_pthread_cfg_key_destructor
1074472812 00000046 T esp_pthread_init
1073900100 00000034 t esp_ptr_executable
1073902428 00000058 T esp_random
1074578172 00000223 T esp_read_mac
1073907024 00000055 T esp_reent_init
1074475820 00000071 T esp_register_freertos_idle_hook_for_cpu
1074475892 00000071 T esp_register_freertos_tick_hook_for_cpu
1075012824 00000047 T esp_register_shutdown_handler
1073899752 00000028 T esp_reset_reason_get_hint
1074475516 00000142 t esp_reset_reason_init
1073899704 00000046 T esp_reset_reason_set_hint
1073899228 00000051 T esp_restart
1073899780 00000283 T esp_restart_noos
1073899192 00000036 T esp_restart_noos_dig
1073813980 A esp_rom_crc32_le
1073797256 A esp_rom_delay_us
1073800352 A esp_rom_efuse_get_flash_gpio_info
1073800260 A esp_rom_efuse_get_flash_wp_gpio
1073807192 A esp_rom_get_reset_reason
1073845296 A esp_rom_gpio_connect_in_signal
1073845344 A esp_rom_gpio_connect_out_signal
1073845604 A esp_rom_gpio_pad_pullup_only
1073845520 A esp_rom_gpio_pad_select_gpio
1073763084 A esp_rom_md5_final
1073762924 A esp_rom_md5_init
1073762956 A esp_rom_md5_update
1073807072 A esp_rom_printf
1073839192 A esp_rom_spi_cmd_config
1073839016 A esp_rom_spi_cmd_start
1073838568 A esp_rom_spi_set_op_mode
1073836192 A esp_rom_spiflash_config_clk
1073830792 A esp_rom_spiflash_select_qio_pins
1073833600 A esp_rom_spiflash_wait_idle
1073838048 A esp_rom_spiflash_write_encrypted
1073818608 A esp_rom_uart_rx_one_char
1073900820 00000086 T esp_rom_uart_set_clock_baudrate
1073818384 A esp_rom_uart_tx_one_char
1073818476 A esp_rom_uart_tx_wait_idle
1074576076 00000178 T esp_rtc_get_time_us
1074650816 00000099 T esp_set_assoc_ie
1074583796 00000041 T esp_set_time_from_rtc
1074583164 00000042 T esp_setup_newlib_syscalls
1074679448 00000241 T esp_sha_512_t_init_hash
1074679416 00000015 T esp_sha_acquire_hardware
1074679692 00000655 T esp_sha_dma
1074680348 00000104 T esp_sha_dma_start
1074679400 00000015 T esp_sha_read_digest_state
1074679432 00000013 T esp_sha_release_hardware
1074679384 00000015 T esp_sha_write_digest_state
1074898680 00000028 T esp_smartconfig_internal_stop
1074893876 00000030 T esp_smartconfig_stop
1074898100 00000573 T esp_smartconfig_stop_local
1074580560 00000072 T esp_spiram_add_to_heapalloc
1074580632 00000071 T esp_spiram_get_size
1074580704 00000035 T esp_spiram_init
1073903764 00000186 T esp_spiram_init_cache
1074580740 00000193 T esp_spiram_test
1073907212 00000041 t esp_stack_ptr_is_sane
1073900136 00000041 t esp_stack_ptr_is_sane
1075012944 00000017 T esp_startup_start_app
1073938940 00000062 T esp_startup_start_app_common
1074650740 00000027 T esp_supplicant_common_deinit
1074650768 00000045 T esp_supplicant_common_init
1074617804 00000017 T esp_supplicant_deinit
1074617656 00000148 T esp_supplicant_init
1074650716 00000023 T esp_supplicant_unset_all_appie
1074583840 00000100 T esp_sync_counters_rtc_and_frc
1073928256 00000008 T esp_system_abort
1073905352 00000031 T esp_system_get_time
1073495744 00000008 d esp_system_init_fn_init_components0
1074474388 00000194 T esp_task_wdt_add
1074474688 00000146 T esp_task_wdt_delete
1074474124 00000263 T esp_task_wdt_init
1074980484 00000005 W esp_task_wdt_isr_user_handler
1074474584 00000090 T esp_task_wdt_reset
1074583756 00000040 T esp_time_impl_get_boot_time
1074583684 00000031 T esp_time_impl_get_time_since_boot
1074583940 00000008 T esp_time_impl_init
1074583716 00000040 T esp_time_impl_set_boot_time
1074582412 00000110 T esp_timer_create
1074582524 00000094 T esp_timer_delete
1074582620 00000015 T esp_timer_early_init
1073905424 00000032 T esp_timer_get_time
1074582792 00000106 T esp_timer_impl_early_init
1073905548 00000011 T esp_timer_impl_get_min_period_us
1073905424 00000032 T esp_timer_impl_get_time
1074582900 00000167 T esp_timer_impl_init
1074582720 00000070 T esp_timer_impl_init_system_time
1073905456 00000074 T esp_timer_impl_set_alarm_id
1073905532 00000013 T esp_timer_impl_update_apb_freq
1074582636 00000081 T esp_timer_init
1073905532 00000013 T esp_timer_private_update_apb_freq
1073904952 00000110 T esp_timer_start_once
1073905064 00000134 T esp_timer_start_periodic
1073905200 00000150 T esp_timer_stop
1057023497 00000006 d esp_unknown_msg
1075012872 00000039 T esp_unregister_shutdown_handler
1074475780 00000039 T esp_vApplicationIdleHook
1073900676 00000025 T esp_vApplicationTickHook
1074483692 00000133 T esp_vfs_close
1074484544 00000072 T esp_vfs_closedir
1074485380 00000032 T esp_vfs_console_register
1074485356 00000021 T esp_vfs_dev_console_register
1074483828 00000068 T esp_vfs_fstat
1074483896 00000076 T esp_vfs_fsync
1074484040 00000095 T esp_vfs_link
1074591396 00000459 T esp_vfs_littlefs_register
1074483544 00000071 T esp_vfs_lseek
1074565360 00000114 T esp_vfs_lwip_sockets_register
1074484616 00000076 T esp_vfs_mkdir
1074483276 00000192 T esp_vfs_open
1074484296 00000087 T esp_vfs_opendir
1074483616 00000075 T esp_vfs_read
1074484384 00000070 T esp_vfs_readdir
1074482812 00000028 T esp_vfs_register
1074482748 00000064 T esp_vfs_register_common
1074482596 00000151 t esp_vfs_register_common$part$2
1074482840 00000225 T esp_vfs_register_fd_range
1074484200 00000095 T esp_vfs_rename
1074484528 00000015 T esp_vfs_rewinddir
1074484692 00000075 T esp_vfs_rmdir
1074484456 00000071 T esp_vfs_seekdir
1074484768 00000067 T esp_vfs_select_triggered
1074484836 00000061 T esp_vfs_select_triggered_isr
1074483972 00000068 T esp_vfs_stat
1074488360 00000008 T esp_vfs_uart_get_vfs
1074484136 00000063 T esp_vfs_unlink
1074483468 00000075 T esp_vfs_write
1074763340 00000017 T esp_wifi_ap_deauth_internal
1074761856 00000015 T esp_wifi_ap_get_prof_ap_ssid_internal
1074761884 00000016 T esp_wifi_ap_get_prof_authmode_internal
1074761900 00000016 T esp_wifi_ap_get_prof_pairwise_cipher_internal
1074762060 00000015 T esp_wifi_ap_get_prof_password_internal
1074761764 00000015 T esp_wifi_ap_get_prof_pmk_internal
1074683928 00000072 T esp_wifi_ap_get_sta_list
1074762676 00000010 T esp_wifi_auth_done_internal
1074615132 00000074 T esp_wifi_bt_power_domain_off
1073907308 00000103 T esp_wifi_bt_power_domain_on
1074682812 00000062 T esp_wifi_connect
1074495768 00000054 T esp_wifi_create_if_driver
1074682948 00000080 T esp_wifi_deauth_sta
1074762812 00000086 T esp_wifi_deauthenticate_internal
1074494404 00000104 T esp_wifi_deinit
1074682096 00000192 T esp_wifi_deinit_internal
1074682880 00000062 T esp_wifi_disconnect
1074683868 00000056 T esp_wifi_get_config
1074684840 00000032 T esp_wifi_get_event_mask
1074762792 00000018 T esp_wifi_get_hostap_private_internal
1074495824 00000017 T esp_wifi_get_if_mac
1074684176 00000044 T esp_wifi_get_mac
1074763312 00000027 T esp_wifi_get_macaddr_internal
1074682348 00000040 T esp_wifi_get_mode
1074762900 00000036 T esp_wifi_get_spp_attrubute_internal
1074764048 00000072 T esp_wifi_get_sta_key_internal
1074762936 00000025 T esp_wifi_get_user_init_flag_internal
1074764296 00000012 T esp_wifi_get_wps_status_internal
1074494508 00000109 T esp_wifi_init
1074681852 00000224 T esp_wifi_init_internal
1074783660 00000010 T esp_wifi_internal_free_rx_buffer
1074685204 00000034 T esp_wifi_internal_issue_disconnect
1074685164 00000034 T esp_wifi_internal_reg_netstack_buf_cb
1074680452 00000014 T esp_wifi_internal_reg_netstack_buf_cb_local
1074684380 00000070 T esp_wifi_internal_reg_rxcb
1074685148 00000012 T esp_wifi_internal_set_log_level
1074684452 00000038 T esp_wifi_internal_set_sta_ip
1074735264 00000025 T esp_wifi_internal_tx
1074735208 00000025 T esp_wifi_internal_tx_by_ref
1074684880 00000262 T esp_wifi_ipc_internal
1074764540 00000023 T esp_wifi_is_btm_enabled_internal
1074981080 00000018 T esp_wifi_is_if_ready_when_started
1074615132 00000074 T esp_wifi_power_domain_off
1073907308 00000103 T esp_wifi_power_domain_on
1074763300 00000012 T esp_wifi_register_eapol_txdonecb_internal
1074495844 00000150 T esp_wifi_register_if_rxcb
1074764568 00000066 T esp_wifi_register_mgmt_frame_internal
1074762752 00000016 T esp_wifi_register_wpa_cb_internal
1074618460 00000017 T esp_wifi_register_wpa3_cb
1074683552 00000068 T esp_wifi_scan_get_ap_num
1074683632 00000126 T esp_wifi_scan_get_ap_records
1074683248 00000300 T esp_wifi_scan_start
1074680468 00000013 T esp_wifi_send_deauth_local
1074763416 00000256 T esp_wifi_set_ap_key_internal
1074764124 00000072 T esp_wifi_set_appie_internal
1074683768 00000098 T esp_wifi_set_config
1074495456 00000010 T esp_wifi_set_default_wifi_ap_handlers
1074495444 00000010 T esp_wifi_set_default_wifi_sta_handlers
1074764372 00000092 T esp_wifi_set_igtk_internal
1074682292 00000054 T esp_wifi_set_mode
1074684224 00000090 T esp_wifi_set_promiscuous
1074684068 00000108 T esp_wifi_set_protocol
1074684004 00000058 T esp_wifi_set_ps
1074763952 00000096 T esp_wifi_set_sta_key_internal
1074684316 00000058 T esp_wifi_set_storage
1074764524 00000014 T esp_wifi_skip_supp_pmkcaching
1074761972 00000062 T esp_wifi_sta_disable_wpa2_authmode_internal
1074761824 00000030 T esp_wifi_sta_get_ap_info_prof_pmk_internal
1074761948 00000016 T esp_wifi_sta_get_config_sae_pwe_h2e_internal
1074762304 00000014 T esp_wifi_sta_get_group_cipher_internal
1074764328 00000034 T esp_wifi_sta_get_mgmt_group_cipher
1074762288 00000014 T esp_wifi_sta_get_pairwise_cipher_internal
1074761916 00000014 T esp_wifi_sta_get_prof_authmode_internal
1074762092 00000013 T esp_wifi_sta_get_prof_password_internal
1074761872 00000012 T esp_wifi_sta_get_prof_ssid_internal
1074762108 00000014 T esp_wifi_sta_get_reset_param_internal
1074761932 00000014 T esp_wifi_sta_get_use_h2e_internal
1074762036 00000021 T esp_wifi_sta_is_ap_notify_completed_rsne_internal
1074764308 00000014 T esp_wifi_sta_pmf_enabled
1074762232 00000030 T esp_wifi_sta_prof_is_wapi_internal
1074762140 00000043 T esp_wifi_sta_prof_is_wpa_internal
1074762188 00000041 T esp_wifi_sta_prof_is_wpa2_internal
1074762264 00000024 T esp_wifi_sta_prof_is_wpa3_internal
1074762648 00000027 T esp_wifi_sta_send_mgmt_internal
1074762124 00000016 T esp_wifi_sta_set_reset_param_internal
1074761780 00000041 T esp_wifi_sta_update_ap_info_internal
1074651348 00000048 T esp_wifi_sta_wpa2_ent_disable
1074651324 00000024 T esp_wifi_sta_wpa2_ent_disable_fn
1074764224 00000072 T esp_wifi_sta_wpa2_ent_disable_internal
1074682392 00000046 T esp_wifi_start
1074682476 00000331 T esp_wifi_stop
1074762720 00000031 T esp_wifi_unregister_wpa_cb_internal
1074762688 00000031 T esp_wifi_unregister_wpa2_cb_internal
1074764196 00000022 T esp_wifi_unset_appie_internal
1074684772 00000064 T esp_wifi_vnd_lora_disable
1074684612 00000159 T esp_wifi_vnd_lora_enable
1074762548 00000097 T esp_wifi_wpa_ptk_init_done_internal
1074618168 00000062 T esp_wpa3_free_sae_data
1074866828 00000340 T espShow
1073499672 00000004 D ETH_EVENT
1073517528 00000001 b etharp_cached_entry
1074544248 00000036 T etharp_cleanup_netif
1074543748 00000248 t etharp_find_entry
1074543660 00000088 t etharp_free_entry
1074544284 00000358 T etharp_input
1074545344 00000278 T etharp_output
1074544824 00000151 t etharp_output_to_arp_index
1074544976 00000365 T etharp_query
1074543996 00000250 t etharp_raw
1074544644 00000037 T etharp_request
1074544736 00000085 T etharp_tmr
1057013918 00000006 D ethbroadcast
1074562880 00000216 T ethernet_input
1074563096 00000103 T ethernet_output
1074574488 00000108 T ethip6_output
1057013912 00000006 D ethzero
1073797256 A ets_delay_us
1073799424 A ets_efuse_clear_program_registers
1073800352 A ets_efuse_get_spiconfig
1073800260 A ets_efuse_get_wp_pad
1073799476 A ets_efuse_program
1073799360 A ets_efuse_read
1073800952 A ets_efuse_rs_calculate
1073797296 A ets_get_cpu_frequency
1073807024 A ets_install_putc1
1073807072 A ets_printf
1073907764 00000090 T ets_timer_arm
1073907680 00000083 T ets_timer_arm_us
1073907856 00000018 T ets_timer_disarm
1074655544 00000024 T ets_timer_done
1074655460 00000082 T ets_timer_setfn
1073902416 00000010 T ets_update_cpu_frequency
1074496796 00000499 t event_callback
1074895236 00000024 t event_group_wait_bits_wrapper
1074895572 00000162 t execute_event_cb
1073850372 00000018 A fclose
1074847740 00000078 t fde_mixed_encoding_compare
1074847140 00000066 t fde_single_encoding_compare
1074847820 00000074 t fde_unencoded_compare
1073912936 00000227 T fe_reg_init
1073748920 00000040 A fflush
1074900000 00000144 T fileno
1073901056 00000033 t find_containing_heap
1074576348 00000033 t find_desc_for_int
1074473124 00000046 t find_key
1074473660 00000047 t find_task_in_twdt_list
1073496224 00000001 d first_call$3831
1073517457 00000001 b flags
1073896440 00000064 t flash_end_flush_cache
1074900344 00000020 T fopen
1073914160 00000077 T force_txon
1074621012 00000015 T forced_memzero
1074586552 00000214 t format_from_efs
1074985304 00000007 T fpm_allow_tx
1074985312 00000005 T fpm_do_wakeup
1073748068 A fputwc
1074846624 00000090 t frame_downheap
1074846716 00000080 t frame_heapsort
1074900628 00000024 T fread
1073949632 00000010 T free
1074746876 00000042 T free_bss_info
1074497800 00000089 t free_socket
1074497764 00000034 t free_socket_free_elements$isra$8
1073536486 00000011 B freq_i2c_addr
1073522414 00000001 B FreqCalCntForScan
1074946184 00000092 T frexp
1074900676 00000025 T fseek
1074901496 00000022 T fseeko
1074483896 00000076 T fsync
1074901540 00000021 T ftell
1074901824 00000018 T ftello
1074689012 00000066 T ftm_add_resp_session
1074693836 00000282 T ftm_create_responder_session
1074689080 00000107 T ftm_free_resp_session
1074688968 00000042 T ftm_get_resp_session_for_peer
1073527352 00002776 B ftm_initiator
1074690864 00001108 T ftm_initiator_new_state
1074690704 00000091 T ftm_initiator_post_event
1074688908 00000032 T ftm_is_responder_supported
1074688940 00000023 T ftm_is_supported
1074984692 00000018 T ftm_map_bw_param_to_phybw
1074687952 00000068 T ftm_offchan_end
1074687916 00000030 T ftm_offchan_tx_req
1074692012 00000658 T ftm_parse_data
1074689192 00000220 T ftm_record_t1t4_cb
1074688092 00000186 T ftm_record_t2t3_cb
1074688052 00000014 T ftm_request_timeout
1074693360 00000471 T ftm_resp_allocate_para
1073527336 00000012 B ftm_resp_ctx
1074689640 00000141 T ftm_resp_get_burst_inst_delay
1074689576 00000052 T ftm_resp_get_burst_slot
1074688036 00000014 T ftm_send_msmt_pkt
1074688068 00000014 T ftm_send_request
1074688020 00000014 T ftm_session_timeout
1074689412 00000162 T ftm_set_t1t4_cb
1074902032 00000024 T fwrite
1073499676 00000008 D g_allowed_groups
1073522156 00000008 B g_beacon_eb
1073522152 00000001 B g_beacon_idx
1073524176 00000001 B g_channel_timer_init
1073500188 00000004 D g_chm
1073522544 00000004 B g_cnx_probe_rc_list_cb
1073531952 00003800 B g_cnxMgr
1073524252 00000004 B g_config_data
1073500620 00000200 D g_eb_list_desc
1073515888 00000004 B g_exc_frames
1073503684 00000024 D g_flash_guard_default_ops
1073503660 00000024 D g_flash_guard_no_os_ops
1073522092 00000004 B g_ftm_report_data
1073530128 00000001 B g_ftm_report_num_valid_entries
1073522028 00000064 B g_hmac_cnt
1073526592 00000636 B g_ic
1073507740 00000004 D g_intr_lock_mux
1073522920 00000180 B g_lmac_cnt
1073536428 00000004 B g_log_level
1073536432 00000024 B g_log_mod
1073517932 00000004 b g_lwip_protect_mutex
1073517060 00000004 B g_lwip_task
1073522210 00000001 B g_mac_sleep_en
1073507748 00000004 D g_mesh_init_ps_type
1073507744 00000001 D g_mesh_is_root
1073507752 00000001 D g_mesh_is_started
1073499741 00000001 D g_mesh_self_organized
1073522388 00000004 B g_mesh_topology
1073536424 00000004 B g_misc_nvs
1073522776 00000001 B g_no_null_data
1073507736 00000004 D g_osi_funcs_p
1073515832 00000001 B g_panic_abort
1073741200 A g_phyFuns
1073536016 00000400 B g_pm
1073500868 00000052 D g_pm_cfg
1073522848 00000072 B g_pm_cnt
1073501884 00000104 D g_pp_timer_info
1073741116 A g_rom_flashchip
1073741140 A g_rom_spiflash_dummy_len_plus
1073521784 00000004 b g_sae_commit
1073521780 00000004 b g_sae_confirm
1073521792 00000084 b g_sae_data
1073521876 00000004 b g_sae_pt
1073521788 00000004 b g_sae_token
1073499996 00000004 D g_scan
1056991240 00000004 D g_spi_lock_main_flash_dev
1073507753 00000001 D g_sta_connected_flag
1056996404 00000004 D g_startup_fn
1073515880 00000008 B g_startup_time
1073527348 00000004 B g_t1_offset_psec
1073741168 A g_ticks_per_us
1073741168 A g_ticks_per_us_pro
1073500004 00000184 D g_timer_info
1073523304 00000004 B g_wdev_csi_rx
1073523300 00000004 B g_wdev_csi_rx_ctx
1073523320 00000001 B g_wdev_last_desc_reset
1073523316 00000004 B g_wdev_record_t1t4_cb
1073523312 00000004 B g_wdev_record_t2t3_cb
1073523308 00000004 B g_wdev_set_t1t4_cb
1057045704 00000108 D g_wifi_default_wpa_crypto_funcs
1073499732 00000004 D g_wifi_event_mask
1073496608 00000008 D g_wifi_feature_caps
1073522200 00000004 B g_wifi_global_lock
1073522408 00000001 B g_wifi_improve_contention_ability
1073530136 00000088 B g_wifi_menuconfig
1073499744 00000004 D g_wifi_nvs
1073503084 00000472 D g_wifi_osi_funcs
1073526304 00000280 B g_wpa_supp
1074544684 00000051 T garp_tmr
1073531700 00000252 B gChmCxt
1073521972 00000004 b gEapSm
1074957188 00000067 t get_arg
1074947572 00001216 t get_arg$isra$0
1074925860 00001216 t get_arg$isra$0
1074911024 00001216 t get_arg$isra$0
1074966116 00001216 t get_arg$isra$0
1074837840 00000103 T get_bias_ref_code
1073898632 00000069 t get_buffer_malloc
1074452864 00000044 T get_calibration_offset
1074847208 00000144 t get_cie_encoding
1074576384 00000155 t get_desc_for_int
1074847720 00000017 t get_fde_encoding
1073908600 00000026 T get_i2c_mst0_mask
1074780468 00000024 T get_iav_key
1074482504 00000029 t get_local_fd
1073895352 00000036 t get_mmu_region
1073916976 00000091 T get_phy_target_power
1074828356 00000028 T get_phy_version_str
1073916872 00000067 T get_pll_vol
1074835156 00000152 T get_power_atten
1074821152 00000231 T get_rf_freq_cap
1074821392 00000222 T get_rf_freq_init
1073916012 00000051 T get_sar_sig_ref
1073916668 00000201 T get_sar2_vol
1074498244 00000024 t get_socket
1074828384 00000056 T get_temp_init
1074894824 00000012 t get_time_wrapper
1074831356 00000096 T get_tone_sar_dout
1074683028 00000198 T get_total_scan_time
1074483100 00000036 t get_vfs_for_fd
1074483068 00000032 T get_vfs_for_index
1074483136 00000137 T get_vfs_for_path
1074990624 00000017 T GetAccess
1074440416 00000038 T getApbFrequency
1074985320 00000035 T getle32
1074924244 00000024 T gettimeofday
1074982720 00000065 t gf_mulx
1073503560 00000012 d global_hooks
1074902056 00000058 T gmtime
1074902116 00000430 T gmtime_r
1061175296 A GPIO
1074442596 00000319 T gpio_config
1073496136 00000024 d gpio_context
1074442220 00000053 T gpio_get_level
1074478948 00000082 T gpio_hal_intr_disable
1074478852 00000094 T gpio_hal_intr_enable_on_core
1074440584 00000093 t gpio_input_disable
1074440488 00000095 t gpio_input_enable
1074443228 00000123 T gpio_install_isr_service
1074441972 00000080 T gpio_intr_disable
1074441860 00000111 T gpio_intr_enable
1074441020 00000079 t gpio_intr_enable_on_core
1073894092 00000095 t gpio_intr_service
1074443552 00000062 T gpio_iomux_in
1074443616 00000104 T gpio_iomux_out
1074442916 00000177 T gpio_isr_handler_add
1073894028 00000063 t gpio_isr_loop
1074443096 00000130 T gpio_isr_register
1073845296 A gpio_matrix_in
1073845344 A gpio_matrix_out
1074440920 00000099 t gpio_od_disable
1074440820 00000099 t gpio_od_enable
1074440680 00000140 t gpio_output_disable
1074441100 00000137 t gpio_output_enable
1073845604 A gpio_pad_pullup
1073845520 A gpio_pad_select_gpio
1057020592 00000188 D GPIO_PIN_MUX_REG
1074441588 00000114 T gpio_pulldown_dis
1074441472 00000115 T gpio_pulldown_en
1074441356 00000113 T gpio_pullup_dis
1074441240 00000115 T gpio_pullup_en
1074442420 00000176 T gpio_set_direction
1074441704 00000154 T gpio_set_intr_type
1074442052 00000166 T gpio_set_level
1074442276 00000144 T gpio_set_pull_mode
1074443352 00000199 T gpio_wakeup_enable
1073939940 00000085 t gpspi_flash_ll_get_buffer_data
1061306368 A GPSPI2
1061310464 A GPSPI3
1073531412 00000284 B gScanStruct
1073525360 00000844 B gWpaSm
1074806760 00000239 T hal_agreement_add_rx_ba
1074807004 00000121 T hal_agreement_clr_rx_ba
1074807132 00000102 T hal_agreement_del_rx_ba
1074812764 00000124 T hal_attenna_init
1074807300 00000102 T hal_ba_session_restore
1074807240 00000058 T hal_ba_session_store
1074807484 00000137 T hal_crypto_clr_key_entry
1074808304 00000057 T hal_crypto_disable
1074808160 00000142 T hal_crypto_enable
1074807932 00000136 T hal_crypto_get_key_entry
1074808092 00000050 T hal_crypto_init
1074807896 00000023 T hal_crypto_is_key_valid
1074807652 00000242 T hal_crypto_set_key_entry
1074810356 00000102 T hal_deinit
1074809156 00000055 T hal_disable_mac
1074813984 00000042 T hal_disable_sta_tbtt
1074813756 00000024 T hal_disable_sta_tsf
1074809212 00000040 T hal_enable_mac
1074813924 00000058 T hal_enable_sta_tbtt
1074813728 00000024 T hal_enable_sta_tsf
1075003012 00000058 T hal_get_sta_tsf
1074811280 00000097 T hal_get_tsf_time
1074810908 00000222 T hal_init
1074812608 00000080 T hal_mac_clr_txq_state
1075008672 00000067 T hal_mac_deinit
1074808908 00000049 T hal_mac_disable_low_rate
1074808968 00000046 T hal_mac_enable_low_rate
1074811724 00000254 T hal_mac_ftm_get_t3
1074812692 00000063 T hal_mac_get_txq_pmd
1074812532 00000061 T hal_mac_get_txq_state
1075008640 00000026 T hal_mac_init
1073908508 00000013 T hal_mac_interrupt_clr_event
1073908488 00000013 T hal_mac_interrupt_get_event
1074997868 00000035 T hal_mac_is_low_rate_enabled
1074808816 00000025 T hal_mac_is_txq_enabled
1074812948 00000153 T hal_mac_rate_autoack_init
1075008740 00000013 T hal_mac_rx_get_last_dscr
1075008756 00000016 T hal_mac_rx_is_dscr_reload
1075002996 00000013 T hal_mac_rx_read_rxdscrlast
1075008604 00000013 T hal_mac_rx_read_rxdscrnext
1075008620 00000013 T hal_mac_rx_set_base
1075008772 00000023 T hal_mac_rx_set_dscr_reload
1074810724 00000175 T hal_mac_rx_set_policy
1074810464 00000099 T hal_mac_set_addr
1074810584 00000130 T hal_mac_set_bssid
1074809912 00000058 T hal_mac_set_rxq_policy
1074808780 00000033 T hal_mac_set_txq_invalid
1074811148 00000120 T hal_mac_tsf_get_time
1074811412 00000226 T hal_mac_tsf_reset
1074997644 00000084 T hal_mac_tx_config_edca
1074808700 00000041 T hal_mac_tx_config_timeout
1074997776 00000070 T hal_mac_tx_get_blockack
1074997904 00000028 T hal_mac_tx_is_cbw40
1074808848 00000032 T hal_mac_tx_set_cca
1074808652 00000042 T hal_mac_tx_set_ppdu
1074808744 00000033 T hal_mac_txq_disable
1074997728 00000033 T hal_mac_txq_enable
1073908548 00000013 T hal_pwr_interrupt_clr_event
1073908528 00000013 T hal_pwr_interrupt_get_event
1074997852 00000013 T hal_random
1074811640 00000031 T hal_rx_enable_bssid_check
1074985800 00000005 T hal_set_rx_ack_pti
1074985792 00000005 T hal_set_rx_active_pti
1075003072 00000030 T hal_set_sta_light_sleep_wake_ahead_time
1074814040 00000087 T hal_set_sta_tbtt
1074814160 00000027 T hal_set_sta_tbtt_ahead_time
1074814128 00000030 T hal_set_sta_tbtt_interval
1074813872 00000039 T hal_set_sta_tsf
1074814192 00000035 T hal_set_sta_tsf_wakeup
1074807404 00000033 T hal_set_tx_pti
1074985808 00000005 T hal_set_wifi_default_pti
1074813244 00000132 T hal_sniffer_disable
1074813108 00000130 T hal_sniffer_enable
1074813384 00000175 T hal_sniffer_rx_set_promis
1074813572 00000151 T hal_sniffer_set_promis_misc_pkt
1074813796 00000075 T hal_timer_update_by_rtc
1074566252 00001194 t handle_dhcp
1073512808 00000140 B Handler
1074893760 00000115 t handler_got_ssid_passwd
1075008968 00000128 t handler_instances_add
1075009544 00000095 t handler_instances_remove
1075014164 00000080 t heap_bubble_down
1074575512 00000085 T heap_caps_add_region
1074575328 00000183 T heap_caps_add_region_with_caps
1073901032 00000022 t heap_caps_alloc_failed
1073902232 00000050 T heap_caps_calloc
1073901552 00000150 T heap_caps_calloc_prefer
1074574820 00000042 T heap_caps_enable_nonos_stack_heaps
1073901704 00000054 T heap_caps_free
1074574608 00000039 T heap_caps_get_free_size
1074574648 00000107 T heap_caps_get_info
1074574756 00000017 T heap_caps_get_largest_free_block
1074574864 00000464 T heap_caps_init
1073901320 00000032 T heap_caps_malloc
1073901092 00000228 t heap_caps_malloc_base
1073901352 00000079 T heap_caps_malloc_default
1074574596 00000010 T heap_caps_malloc_extmem_enable
1073901432 00000120 T heap_caps_malloc_prefer
1074981764 00000038 T heap_caps_match
1073902112 00000030 T heap_caps_realloc
1073901760 00000236 t heap_caps_realloc_base
1073902144 00000087 T heap_caps_realloc_default
1073901996 00000115 T heap_caps_realloc_prefer
1074649800 00000035 T hex2byte
1074983408 00000053 t hex2num
1074649836 00000038 T hexstr2bin
1074628568 00000040 t hkdf_expand
1074672760 00000222 t hmac_drbg_reseed_core
1074619192 00000029 T hmac_md5
1074619168 00000024 T hmac_md5_vector
1074619248 00000029 T hmac_sha1
1074619224 00000024 T hmac_sha1_vector
1074640564 00000240 T hmac_sha256_kdf
1074619144 00000024 T hmac_sha256_vector
1074619004 00000098 t hmac_vector
1073496288 00000008 d hooks_spinlock
1074696920 00000288 T hostap_auth_open
1074618812 00000093 T hostap_deinit
1074696400 00000158 T hostap_deliver_data
1074626900 00000061 T hostap_eapol_resend_process
1074695176 00000014 T hostap_handle_timer
1074696588 00000271 T hostap_handle_timer_process
1074618480 00000329 T hostap_init
1074699716 00001430 T hostap_input
1074699452 00000248 T hostap_recv_ctl
1074697252 00002192 T hostap_recv_mgmt
1074621088 00000061 T hostapd_get_psk
1074621028 00000060 T hostapd_setup_wpa_psk
1073503948 00000006 d hpm_flash_chip_dummy
00000032 a i
1073909112 00000262 T i2c_bbtop_init
1074883400 00000191 t i2c_cmd_link_append
1074987756 00000043 T i2c_cmd_link_create_static
1074987800 00000005 T i2c_cmd_link_delete_static
1074883348 00000052 t i2c_cmd_log_alloc_error
1073502976 00000040 d i2c_context
1074883592 00000280 T i2c_driver_delete
1074988120 00000012 T i2c_hal_clr_intsts_mask
1074988132 00000025 T i2c_hal_disable_intr_mask
1074988100 00000019 T i2c_hal_get_filter
1074988280 00000027 T i2c_hal_get_sda_timing
1074988308 00000031 T i2c_hal_get_start_timing
1074988340 00000029 T i2c_hal_get_stop_timing
1074893548 00000020 T i2c_hal_get_tout
1074988264 00000015 T i2c_hal_is_bus_busy
1074988372 00000064 T i2c_hal_master_clr_bus
1074893568 00000189 T i2c_hal_master_init
1074893388 00000039 T i2c_hal_rxfifo_rst
1074987980 00000117 T i2c_hal_set_filter
1074988216 00000048 T i2c_hal_set_sda_timing
1074988160 00000054 T i2c_hal_set_start_timing
1074893492 00000055 T i2c_hal_set_stop_timing
1074893428 00000063 T i2c_hal_set_tout
1074893348 00000039 T i2c_hal_txfifo_rst
1073939396 00000005 T i2c_hal_update_config
1074883040 00000070 t i2c_hw_disable
1074882968 00000070 t i2c_hw_enable
1074883112 00000234 t i2c_hw_fsm_reset
1074884840 00000625 T i2c_master_cmd_begin
1073918356 00000569 t i2c_master_cmd_begin_static
1074884604 00000236 T i2c_master_read
1074884432 00000171 T i2c_master_read_byte
1074885468 00000124 T i2c_master_read_from_device
1073915124 00000095 T i2c_master_reset
1074884048 00000071 T i2c_master_start
1074884120 00000075 T i2c_master_stop
1074884292 00000139 T i2c_master_write
1074884196 00000096 T i2c_master_write_byte
1074885592 00000164 T i2c_master_write_read_device
1073908744 00000095 T i2c_paral_read
1073908628 00000053 T i2c_paral_set_mst0
1073908688 00000050 T i2c_paral_set_read
1073908840 00000094 T i2c_paral_write
1073908936 00000055 T i2c_paral_write_num
1057060588 00000024 D i2c_periph_signal
1074883960 00000087 T i2c_reset_rx_fifo
1074883872 00000087 T i2c_reset_tx_fifo
1073921304 00000151 t i2c_rtc_enable_block
1073921456 00000103 T i2c_rtc_read_reg_mask
1073921560 00000056 T i2c_rtc_write_reg
1073921616 00000170 T i2c_rtc_write_reg_mask
1073909860 00000052 T i2c_sar2_init_code
1074881916 00000268 t i2c_slave_free_resources
1074881872 00000044 t i2c_slave_gpio_mode
1061236736 A I2C0
1061318656 A I2C1
1074882292 00000107 T i2cDeinit
1074882256 00000035 T i2cIsInit
1073912528 00000290 T i2cmst_reg_init
1074882672 00000136 T i2cRead
1074882184 00000071 T i2cSlaveDeinit
1074882400 00000270 T i2cWrite
1074882808 00000158 T i2cWriteReadNonStop
1074784280 00000025 T ic_add_rx_ba
1074784368 00000033 T ic_ampdu_op
1074785048 00000010 T ic_create_wifi_task
1074784568 00000019 T ic_deinit
1074784332 00000010 T ic_del_key
1074784316 00000013 T ic_del_key_all
1074784248 00000011 T ic_del_rx_ba
1074785060 00000010 T ic_delete_wifi_task
1074784712 00000057 T ic_disable
1074783324 00000031 T ic_disable_crypto
1074784796 00000024 T ic_disable_rx
1074783848 00000010 T ic_disable_sniffer
1074783620 00000016 T ic_ebuf_alloc
1074783648 00000010 T ic_ebuf_recycle_rx
1074783636 00000010 T ic_ebuf_recycle_tx
1074784644 00000066 T ic_enable
1074784772 00000024 T ic_enable_rx
1074783836 00000010 T ic_enable_sniffer
1074783284 00000017 T ic_get_addr
1074785116 00000010 T ic_get_default_sched
1074783428 00000068 T ic_get_key
1074784236 00000010 T ic_get_next_tbtt
1074784892 00000010 T ic_get_pp_hdl
1074783304 00000020 T ic_get_ptk_alg
1074784876 00000016 T ic_get_trc
1074784588 00000051 T ic_init
1075003968 00000020 T ic_interface_enabled
1075004000 00000010 T ic_mac_deinit
1075003988 00000010 T ic_mac_init
1074783496 00000103 T ic_obtain_key
1074783740 00000020 T ic_register_config_cb
1074783820 00000016 T ic_register_ftm_callbacks
1074783728 00000012 T ic_register_michael_mic_failure_cb
1074783780 00000020 T ic_register_net80211_tx_cb
1074783760 00000020 T ic_register_pm_tx_null_cb
1074783696 00000018 T ic_register_rx_cb
1074783800 00000020 T ic_register_timer_cb
1074783716 00000012 T ic_register_timer_post_cb
1074783672 00000021 T ic_register_tx_cb
1074784260 00000020 T ic_reset_rx_ba
1074784308 00000008 T ic_reset_tbtt
1074785104 00000011 T ic_rx_enable_bssid_check
1074784344 00000023 T ic_set_ac_param
1074784820 00000010 T ic_set_beacon_int
1074784848 00000013 T ic_set_bssid
1074784864 00000012 T ic_set_current_channel
1074784964 00000013 T ic_set_interface
1074783356 00000070 T ic_set_key
1074784832 00000013 T ic_set_mac
1074784928 00000022 T ic_set_rx_policy
1074784904 00000024 T ic_set_rx_policy_ubssid_check
1074776512 00000176 T ic_set_sta
1074784952 00000011 T ic_set_sta_auth_flag
1074784412 00000155 T ic_set_trc
1074783896 00000339 T ic_set_vif
1074784996 00000010 T ic_stop_hw_txq
1074785012 00000022 T ic_stop_sw_txq
1074784980 00000015 T ic_trc_update_ifx_phy_mode
1074783600 00000017 T ic_tx_pkt
1074785036 00000010 T ic_txq_empty
1074785072 00000030 T ic_update_sta_tsf
1074546000 00000215 T icmp_dest_unreach
1074545624 00000376 T icmp_input
1074549916 00000020 T icmp6_dest_unreach
1074549700 00000216 T icmp6_input
1074549936 00000026 T icmp6_param_problem
1074549636 00000062 t icmp6_send_response
1074549424 00000212 t icmp6_send_response_with_addrs_and_netif
1073517792 00000004 b identification$7164
1073515792 00000032 b idle_cb
1074474676 00000010 t idle_hook_cb
1074780700 00000038 T ieee80211_action_vendor_spec_attach
1074731336 00000030 T ieee80211_add_assoc_req_ies
1074742580 00000074 T ieee80211_add_countryie
1074731520 00000040 T ieee80211_add_csa
1074731264 00000029 T ieee80211_add_dsparams
1074731568 00000074 T ieee80211_add_extcap
1074708684 00000054 T ieee80211_add_htcap
1074708740 00000049 T ieee80211_add_htcap_vendor
1074709084 00000054 T ieee80211_add_htinfo
1074708800 00000274 T ieee80211_add_htinfo_body
1074709148 00000076 T ieee80211_add_htinfo_vendor
1074709572 00000043 T ieee80211_add_ie_vendor_esp_head
1074709616 00000064 T ieee80211_add_ie_vendor_esp_manufacturer
1074731368 00000030 T ieee80211_add_probe_req_ies
1074731220 00000042 T ieee80211_add_rates
1074731408 00000111 T ieee80211_add_wme_param
1074731296 00000040 T ieee80211_add_xrates
1074727540 00000094 T ieee80211_adjust_2nd_chan
1074730832 00000095 T ieee80211_align_eb
1074711152 00000056 T ieee80211_alloc_challenge
1074736532 00000061 T ieee80211_alloc_deauth
1074735924 00000602 T ieee80211_alloc_proberesp
1074729564 00000080 T ieee80211_alloc_tx_buf
1074706352 00000114 T ieee80211_ampdu_age_all
1074705476 00000023 T ieee80211_ampdu_enable
1074998704 00000456 T ieee80211_ampdu_reorder
1074705620 00000452 T ieee80211_ampdu_request
1074706280 00000069 T ieee80211_ampdu_start_age_timer
1074730040 00000197 T ieee80211_amsdu_adjust_head
1074730240 00000042 T ieee80211_amsdu_adjust_last_length
1074735452 00000096 T ieee80211_amsdu_encap_check
1074730284 00000041 T ieee80211_amsdu_length_check
1074712932 00000168 T ieee80211_amsdu_negotiate
1074735296 00000155 T ieee80211_amsdu_send_check
1074732372 00000820 T ieee80211_assoc_req_construct
1074733212 00000551 T ieee80211_assoc_resp_construct
1074733772 00000571 T ieee80211_auth_construct
1074739260 00000486 T ieee80211_beacon_alloc
1074736972 00000561 T ieee80211_beacon_construct
1074712892 00000037 T ieee80211_better_rsn_pairwise_cipher
1074781088 00000436 T ieee80211_ccmp_decrypt
1074781528 00000209 T ieee80211_ccmp_encrypt
1074730988 00000232 T ieee80211_classify
1074769192 00000048 T ieee80211_cnx_attach
1074729920 00000114 T ieee80211_copy_eb_header
1074686932 00000305 T ieee80211_crypto_aes_128_cmac_decrypt
1074984668 00000005 T ieee80211_crypto_attach
1074686756 00000153 T ieee80211_crypto_decap
1074686636 00000113 T ieee80211_crypto_encap
1074687256 00000399 T ieee80211_crypto_gmac_decrypt
1074734348 00000119 T ieee80211_deauth_construct
1074709996 00000415 T ieee80211_decap
1074709328 00000238 T ieee80211_decap_amsdu
1074709228 00000096 T ieee80211_decap1
1074780992 00000082 T ieee80211_decrypt_espnow_pkt
1074734472 00000119 T ieee80211_disassoc_construct
1074729684 00000118 T ieee80211_empty_txq
1074735548 00000360 T ieee80211_encap_amsdu
1074988812 00001111 T ieee80211_encap_esfbuf
1074739756 00000240 T ieee80211_encap_null_data
1057051002 00000006 D ieee80211_ethbroadcast
1074985040 00000048 T ieee80211_find_ie
1074695244 00000051 T ieee80211_free_beacon_eb
1074685464 00000032 T ieee80211_freedom_init
1074685388 00000046 T ieee80211_freedom_inside_cb
1074694768 00000084 W ieee80211_ftm_attach
1074984712 00000007 T ieee80211_ftm_detach
1074984684 00000005 T ieee80211_ftm_measurement_txcb
1074694528 00000030 T ieee80211_ftm_req_timeout_process
1074984676 00000005 T ieee80211_ftm_request_txcb
1074693220 00000024 T ieee80211_ftm_sess_timeout_process
1074762480 00000020 T ieee80211_get_ptk
1074762500 00000042 T ieee80211_get_spp
1074782484 00000098 T ieee80211_getbcnframe
1074732200 00000139 T ieee80211_getcapinfo
1074782416 00000057 T ieee80211_getmgtframe
1074984960 00000054 T ieee80211_gettid
1074740680 00000055 T ieee80211_gpsq_init
1074650688 00000027 t ieee80211_handle_rx_frm
1074706952 00000168 T ieee80211_has_ht40_bss
1074696016 00000370 T ieee80211_hostap_attach
1074695324 00000664 T ieee80211_hostap_send_beacon_process
1074694992 00000166 T ieee80211_hostapd_beacon_txcb
1074695192 00000042 T ieee80211_hostapd_ps_txcb
1074704232 00000356 T ieee80211_ht_attach
1074705388 00000088 T ieee80211_ht_deattach
1074706584 00000044 T ieee80211_ht_node_cleanup
1074706636 00000095 T ieee80211_ht_node_init
1074707900 00000043 T ieee80211_ht_updatehtcap
1074707972 00000380 T ieee80211_ht_updateparams
1074685548 00000178 T ieee80211_ifattach
1074685728 00000017 T ieee80211_ifdetach
1074724724 00000362 T ieee80211_ioctl
1074724696 00000012 T ieee80211_ioctl_deinit
1074724668 00000028 T ieee80211_ioctl_init
1074714956 00000218 T ieee80211_ioctl_process
1074742080 00000076 T ieee80211_is_40mhz_valid_bw
1074714524 00000039 T ieee80211_is_ht_cipher
1074984896 00000024 T ieee80211_is_lr_only
1074984824 00000072 T ieee80211_is_support_rate
1074997932 00000030 T ieee80211_is_tx_allowed
1074731924 00000265 T ieee80211_mgmt_output
1074741804 00000222 T ieee80211_mlme_connect_bss
1074741468 00000094 T ieee80211_node_pwrsave
1074735236 00000025 T ieee80211_output
1074734784 00000422 T ieee80211_output_do
1074730340 00000031 T ieee80211_output_init
1074729864 00000056 T ieee80211_output_pending_eb
1074989956 00000436 T ieee80211_output_process
1074736608 00000364 T ieee80211_output_raw_process
1074714696 00000210 T ieee80211_parse_action
1074711236 00001381 T ieee80211_parse_beacon
1074706744 00000206 T ieee80211_parse_htcap
1074756444 00000038 T ieee80211_parse_obss_scan_param
1074713244 00001280 T ieee80211_parse_rsn
1074714568 00000128 T ieee80211_parse_wapi
1074755780 00000126 T ieee80211_parse_wmeparams
1074712620 00000226 T ieee80211_parse_wpa
1074740036 00000010 T ieee80211_phy_deinit
1074740512 00000140 T ieee80211_phy_init
1074740168 00000093 T ieee80211_phy_mode_show
1074740048 00000091 T ieee80211_phy_type_get
1074739996 00000038 T ieee80211_pm_tx_null_process
1074729804 00000057 T ieee80211_post_hmac_tx
1074741696 00000032 T ieee80211_proto_attach
1074740960 00000070 T ieee80211_psq_drop_one_pkt
1074740736 00000051 T ieee80211_psq_find_max_bss
1074740652 00000022 T ieee80211_psq_init
1074741116 00000053 T ieee80211_psq_is_buff_pkt
1074741032 00000082 T ieee80211_psq_send_one_pkt
1074740900 00000058 T ieee80211_psq_take_head
1074741172 00000102 T ieee80211_pwrsave
1074741564 00000054 T ieee80211_pwrsave_node_cleanup
1074741620 00000072 T ieee80211_pwrsave_txcb
1074685436 00000024 T ieee80211_rate_ref_init
1074780288 00000175 T ieee80211_recv_action
1074780172 00000102 T ieee80211_recv_action_register
1074780500 00000194 T ieee80211_recv_action_vendor_spec
1074706472 00000111 T ieee80211_recv_bar
1074729644 00000033 T ieee80211_recycle_cache_eb
1074729500 00000015 T ieee80211_reg_netstack_buf_cb
1074742696 00000024 T ieee80211_regdomain_ap_max_chan
1074742748 00000011 T ieee80211_regdomain_ap_min_chan
1074742772 00000030 T ieee80211_regdomain_chan_in_range
1074742156 00000054 T ieee80211_regdomain_get_country
1074742804 00000048 T ieee80211_regdomain_is_active_scan
1074742656 00000039 T ieee80211_regdomain_max_chan
1074742720 00000027 T ieee80211_regdomain_min_chan
1074742760 00000010 T ieee80211_regdomain_policy
1074742252 00000282 T ieee80211_regdomain_update
1074742556 00000020 T ieee80211_regdomain_update_in_connect
1074742536 00000018 T ieee80211_regdomain_update_in_scan
1074765612 00000069 T ieee80211_register_ftm_timer
1074765692 00000045 T ieee80211_register_hostap_timer
1074742868 00000028 T ieee80211_rfid_locp_recv
1074742852 00000013 T ieee80211_rfid_locp_recv_reset
1074712852 00000037 T ieee80211_rsn_cipher_priority
1074743480 00000146 T ieee80211_scan_attach
1074743628 00000036 T ieee80211_scan_deattach
1074734612 00000162 T ieee80211_search_node
1074780024 00000126 T ieee80211_send_action
1074779916 00000102 T ieee80211_send_action_register
1074739000 00000229 T ieee80211_send_deauth
1074694560 00000172 T ieee80211_send_ftmr_process
1074738572 00000200 T ieee80211_send_mgmt
1074737752 00000281 T ieee80211_send_nulldata
1074738040 00000521 T ieee80211_send_probereq
1074738780 00000212 T ieee80211_send_proberesp
1074730384 00000270 T ieee80211_send_setup
1074724288 00000171 T ieee80211_set_appie
1074762424 00000054 T ieee80211_set_gtk
1074729516 00000046 T ieee80211_set_hmac_stop
1074762320 00000058 T ieee80211_set_key
1074710628 00000230 T ieee80211_set_max_rate
1074716256 00000394 T ieee80211_set_phy_bw
1074716652 00000398 T ieee80211_set_phy_mode
1074985016 00000024 T ieee80211_set_shortslottime
1074762380 00000035 T ieee80211_set_sta_gtk_index
1074740788 00000112 T ieee80211_set_tim
1074737540 00000204 T ieee80211_set_tx_desc
1074730928 00000041 T ieee80211_set_tx_pti
1074708540 00000134 T ieee80211_setup_basic_htrates
1074708356 00000174 T ieee80211_setup_htrates
1074711048 00000100 T ieee80211_setup_lr_rates
1074710872 00000176 T ieee80211_setup_phy_mode
1074759120 00000047 T ieee80211_setup_pmf
1074710412 00000201 T ieee80211_setup_rates
1074984920 00000007 T ieee80211_setup_rateset
1074740284 00000224 T ieee80211_setup_ratetable
1074731780 00000138 T ieee80211_setup_robust_mgmtframe
1074717160 00000172 T ieee80211_sta_connect
1074717388 00000142 T ieee80211_sta_disconnect
1074762772 00000020 T ieee80211_sta_is_connected
1074751560 00003049 T ieee80211_sta_new_state
1074717664 00000034 T ieee80211_sta_scan
1074765748 00000146 T ieee80211_timer_do_process
1074765912 00000160 T ieee80211_timer_process
1074693248 00000112 T ieee80211_tx_ftm_msmt_process
1074730656 00000175 T ieee80211_tx_mgt_cb
1074707144 00000754 T ieee80211_update_channel
1074742212 00000036 T ieee80211_update_phy_country
1074685500 00000048 T ieee80211_user_ie_init
1074731644 00000056 T ieee80211_vnd_ie_set
1074731724 00000050 T ieee80211_vnd_lora_ie_set
1074731700 00000024 T ieee80211_vnd_lora_ie_size
1074755716 00000063 T ieee80211_wme_standard_ac_to_esp_ac
1074741732 00000058 T ieee80211_wme_updateparams
1074764464 00000019 T ieee80211w_get_active_igtk_key_id
1074764488 00000034 T ieee80211w_get_igtk_from_keyidx
1074621908 00000140 t ieee80211w_kde_add
1074642428 00000131 t ieee80211w_set_keys$constprop$23
1073535972 00000040 B if_ctrl
1074546468 00000034 t igmp_delaying_member
1074546504 00000021 T igmp_init
1074546772 00000174 T igmp_input
1074547060 00000079 T igmp_joingroup
1074546948 00000110 T igmp_joingroup_netif
1074547268 00000085 T igmp_leavegroup
1074547140 00000128 T igmp_leavegroup_netif
1074981464 00000022 T igmp_lookfor_group
1074546612 00000105 t igmp_lookup_group
1074546580 00000031 T igmp_report_groups
1074546216 00000190 t igmp_send
1074546720 00000052 T igmp_start
1074546408 00000058 t igmp_start_timer
1074546528 00000051 T igmp_stop
1074547476 00000008 t igmp_timeout_cb
1074547356 00000120 T igmp_tmr
1074458576 00000350 t image_load
1074455780 00000074 t image_validate
1073522540 00000001 B in_blacklist_flag
1073522456 00000001 B in_rssi_adjust
1073514360 00000008 B INADDR_NONE
1074983464 00000026 T inc_byte_array
1074980476 00000005 T include_esp_phy_override
1074574380 00000024 T inet_chksum
1074574404 00000081 T inet_chksum_pbuf
1074574212 00000056 T inet_chksum_pseudo
1074574096 00000113 t inet_cksum_pseudo_base
1074979436 00000005 W init
1074440052 00000048 t initApbChangeCallback
1074437288 00000134 T initArduino
1073514385 00000001 b initialized$7909
1073515172 00000001 b initialized$7944
1074979428 00000005 W initVariant
1073517860 00000064 b input
1073517488 00000016 b inseg
1074983492 00000025 T int_array_len
1074616436 00000028 T interrupt_controller_hal_desc_flags
1074616412 00000023 T interrupt_controller_hal_desc_level
1074616464 00000008 T interrupt_controller_hal_desc_table
1074616388 00000023 T interrupt_controller_hal_desc_type
1074895148 00000014 t interrupt_controller_hal_disable_interrupts
1074895164 00000014 t interrupt_controller_hal_enable_interrupts
1057045308 00000384 d interrupt_descriptor_table
1073514576 00000001 b interrupt_initialized$10143
1073803728 A intr_matrix_set
1073512948 00001116 B IotServer
1057013084 00000024 D ip_addr_any
1057003984 00000024 D ip_addr_any_type
1057013060 00000024 D ip_addr_broadcast
1074574340 00000039 T ip_chksum_pseudo
1073524296 00000068 B ip_data
1073496596 00000004 D IP_EVENT
1073517788 00000002 b ip_id
1074505028 00000042 T ip_input
1074981488 00000060 T ip4_addr_isbroadcast_u32
1073517784 00000004 b ip4_default_multicast_netif
1074549076 00000346 T ip4_frag
1074547764 00000581 T ip4_input
1074547484 00000039 t ip4_input_accept
1074547524 00000056 T ip4_netif_exist
1074548996 00000037 T ip4_output_if
1074548940 00000053 T ip4_output_if_opt
1074548348 00000590 T ip4_output_if_opt_src
1074549036 00000037 T ip4_output_if_src
1074547620 00000102 T ip4_route
1074547724 00000038 T ip4_route_src
1074547580 00000039 T ip4_route_src_hook
1057013496 00000024 D ip6_addr_any
1074574268 00000072 T ip6_chksum_pseudo
1074553304 00000333 T ip6_frag
1074550940 00001412 T ip6_input
1074549964 00000089 t ip6_input_accept
1074553240 00000062 T ip6_options_add_hbh_ra
1074553148 00000092 T ip6_output_if
1074552352 00000794 T ip6_output_if_src
1074550056 00000542 T ip6_route
1074550600 00000337 T ip6_select_source_address
1073912828 00000072 T iq_corr_enable
1074725100 00000200 T is_esp_mesh_assoc
1073921168 00000020 t is_from_isr_wrapper
1074991928 00000029 T is_lmac_idle
1073895416 00000094 t is_page_mapped_in_cache$constprop$0
1074460612 00000025 t is_safe_write_address
1073517772 00000001 b is_tmr_start
1073517796 00000001 b is_tmr_start
1074576540 00000161 t is_vect_desc_usable$constprop$2
1074641756 00000048 t is_wpa2_enterprise_connection
1073772760 A isalnum
1073772776 A isalpha
1073851116 A isascii
1073772792 A isblank
1073772824 A iscntrl
1073772848 A isdigit
1073772904 A isgraph
1073772872 A islower
1074907284 00000223 t iso_year_adjust
1073772928 A isprint
1073772948 A ispunct
1073772972 00000018 A isspace
1073772996 A isupper
1074943680 00000017 T iswspace
1074943700 00000028 T iswspace_l
1074902608 00000016 T itoa
1073521772 00000008 b iwdt_context
1074880432 00000046 T JCA_SYS_PWM_Write
00000028 a KernelFrameSize
00000028 a KernelFrameSize
00000028 a KernelFrameSize
00000028 a KernelFrameSize
00000028 a KernelFrameSize
00000028 a KernelFrameSize
00000028 a KernelFrameSize
00000008 a KEXC_areg
00000008 a KEXC_areg
00000008 a KEXC_areg
00000008 a KEXC_areg
00000008 a KEXC_areg
00000008 a KEXC_areg
00000008 a KEXC_areg
00000000 a KEXC_pc
00000000 a KEXC_pc
00000000 a KEXC_pc
00000000 a KEXC_pc
00000000 a KEXC_pc
00000000 a KEXC_pc
00000000 a KEXC_pc
00000004 a KEXC_ps
00000004 a KEXC_ps
00000004 a KEXC_ps
00000004 a KEXC_ps
00000004 a KEXC_ps
00000004 a KEXC_ps
00000004 a KEXC_ps
00000024 a KEXC_sar
00000024 a KEXC_sar
00000024 a KEXC_sar
00000024 a KEXC_sar
00000024 a KEXC_sar
00000024 a KEXC_sar
00000024 a KEXC_sar
1074898776 00000027 T KISS_Free_Glob_Diret
1074898744 00000027 T KISS_Free_Glob_Trans
1074898712 00000027 T KISS_Free_guide_glob
1073537048 00000020 B KissRes_ht20_timer
1073743432 00000008 A labs
1073518364 00000004 b last_ccount$4028
1073517797 00000001 b last_router$7693
1073899701 T ld_include_highint_hdl
1073743440 A ldiv
1061261312 A LEDC
1073918948 00000146 t ledc_duty_config$constprop$13
1074885792 00000085 t ledc_enable_intr_type
1073939624 00000044 T ledc_hal_ls_channel_update
1073939568 00000054 T ledc_hal_set_duty_cycle
1073939456 00000054 T ledc_hal_set_duty_direction
1073939512 00000054 T ledc_hal_set_duty_num
1073939668 00000051 T ledc_hal_set_duty_scale
1073939404 00000051 T ledc_hal_set_hpoint
1073918928 00000018 t ledc_ls_channel_update$part$1
1074886140 00000159 T ledc_set_duty
1073503016 00000008 d ledc_spinlock
1074885924 00000213 T ledc_update_duty
1074905544 00000028 t lflush
1074598872 00000189 t lfs_alloc
1074982324 00000053 t lfs_alloc_lookahead
1074594888 00000132 t lfs_bd_cmp$constprop$45
1074595652 00000119 t lfs_bd_crc$constprop$46
1074593348 00000056 t lfs_bd_erase
1074595064 00000142 t lfs_bd_flush
1074595208 00000212 t lfs_bd_prog
1074592428 00000338 t lfs_bd_read
1074593500 00000022 t lfs_cache_zero$isra$26
1074603984 00000080 t lfs_commitattr
1074592208 00000064 T lfs_crc
1074593712 00000148 t lfs_ctz_find$constprop$39
1074593524 00000062 t lfs_ctz_index$isra$27
1074593588 00000121 t lfs_ctz_traverse$part$28
1074593172 00000056 t lfs_deinit
1074599064 00000129 t lfs_dir_alloc$part$29
1074982396 00000028 T lfs_dir_close
1074603444 00000042 t lfs_dir_commit
1074595628 00000021 t lfs_dir_commit_commit
1074592408 00000018 t lfs_dir_commit_size
1074595468 00000158 t lfs_dir_commitattr
1074595772 00000455 t lfs_dir_commitcrc
1074595420 00000048 t lfs_dir_commitprog
1074599456 00000506 t lfs_dir_compact
1074603708 00000054 t lfs_dir_drop
1074597492 00000029 t lfs_dir_fetch
1074596228 00001131 t lfs_dir_fetchmatch
1074597632 00000315 t lfs_dir_find
1074595020 00000044 t lfs_dir_find_match
1074593088 00000030 t lfs_dir_get
1074593120 00000050 t lfs_dir_getgstate
1074593228 00000118 t lfs_dir_getinfo
1074593860 00000139 t lfs_dir_getread$part$25$constprop$41
1074592820 00000267 t lfs_dir_getslice
1074607636 00000153 T lfs_dir_open
1074602312 00000781 t lfs_dir_orphaningcommit
1074607792 00000132 T lfs_dir_read
1074601236 00001075 t lfs_dir_relocatingcommit
1074607924 00000024 T lfs_dir_rewind
1074599964 00000117 t lfs_dir_split
1074594212 00000673 t lfs_dir_traverse$constprop$43
1074592308 00000099 t lfs_dir_traverse_filter
1074981932 00000157 t lfs_errno_remap
1074606708 00000044 T lfs_file_close
1074600708 00000221 t lfs_file_flush
1074594000 00000210 t lfs_file_flushedread
1074600084 00000622 t lfs_file_flushedwrite
1074606656 00000050 T lfs_file_open
1074603928 00000056 t lfs_file_rawclose
1074604064 00000575 t lfs_file_rawopencfg
1074600932 00000128 t lfs_file_rawseek
1074603764 00000161 t lfs_file_rawsync
1074601060 00000147 t lfs_file_rawwrite
1074606796 00000087 T lfs_file_read
1074599196 00000257 t lfs_file_relocate
1074606932 00000048 T lfs_file_seek
1074606752 00000044 T lfs_file_sync
1074606980 00000304 T lfs_file_truncate
1074606884 00000048 T lfs_file_write
1074604736 00000216 T lfs_format
1074603096 00000345 t lfs_fs_deorphan$part$32
1074603488 00000220 t lfs_fs_forceconsistency
1074607948 00000017 T lfs_fs_grow
1074597360 00000131 t lfs_fs_parent
1074592768 00000051 t lfs_fs_parent_match
1074597524 00000106 t lfs_fs_pred
1074593404 00000096 t lfs_fs_preporphans
1074598788 00000084 t lfs_fs_rawgc
1074604640 00000096 T lfs_fs_rawgrow
1074601208 00000028 t lfs_fs_rawsize
1074598432 00000356 t lfs_fs_rawtraverse
1074982380 00000013 t lfs_fs_size_count
1074606520 00000104 T lfs_getattr
1074592272 00000035 t lfs_gstate_hasmovehere
1074982268 00000030 t lfs_gstate_iszero
1074982240 00000025 t lfs_gstate_xor
1074597948 00000481 t lfs_init
1074607284 00000350 T lfs_mkdir
1074982300 00000021 t lfs_mlist_isopen
1074604964 00000648 T lfs_mount
1074982124 00000052 t lfs_pair_cmp
1074982100 00000024 t lfs_pair_isnull
1074982176 00000040 t lfs_pair_issync
1074604952 00000012 t lfs_rawunmount
1074605612 00000209 T lfs_remove
1074605824 00000654 T lfs_rename
1074606624 00000032 T lfs_setattr
1074606480 00000040 T lfs_stat
1074982216 00000024 t lfs_tag_dsize
1074604952 00000012 T lfs_unmount
1074818680 00000064 t lib_printf$isra$0
1074847540 00000177 t linear_search_fdes
1073514176 00000012 B LittleFS
1074592148 00000058 T littlefs_api_erase
1074592088 00000060 T littlefs_api_prog
1074592028 00000060 T littlefs_api_read
1074982092 00000007 T littlefs_api_sync
1074674932 00000049 t lldesc_append
1073949752 00000197 T lldesc_setup_link_constrained
1074785800 00000279 T lmac_record_txtime
1074789024 00000141 T lmac_stop_hw_txq
1074990704 00000062 T lmacAdjustTimestamp
1073500820 00000048 D lmacConfMib
1074788824 00000123 T lmacDisableTransmit
1074786256 00000020 T lmacDiscardAgedMSDU
1074786432 00000147 T lmacDiscardFrameExchangeSequence
1074786084 00000171 T lmacDiscardMSDU
1074991364 00000564 T lmacEndFrameExchangeSequence
1074785688 00000097 T lmacEndRetryAMPDUFail
1074785544 00000144 T lmacInit
1074785476 00000055 T lmacInitAc
1074785132 00000027 T lmacIsIdle
1074785164 00000029 T lmacIsLongFrame
1074990648 00000053 T lmacMSDUAged
1073907976 00000015 T lmacPostTxComplete
1074787976 00000166 T lmacProcessAckTimeout
1073907960 00000015 T lmacProcessAllTxTimeout
1074787720 00000172 T lmacProcessCollision
1073907944 00000015 T lmacProcessCollisions
1074787892 00000066 T lmacProcessCollisions_task
1074787268 00000084 T lmacProcessCtsTimeout
1074787368 00000334 T lmacProcessLongRetryFail
1073907992 00000015 T lmacProcessRxSucData
1074786816 00000444 T lmacProcessShortRetryFail
1074788504 00000296 T lmacProcessTxComplete
1074788344 00000136 T lmacProcessTxError
1074788160 00000158 T lmacProcessTxRtsError
1074788320 00000014 T lmacProcessTxseckiderr
1074786596 00000186 T lmacProcessTxSuccess
1074788948 00000062 T lmacProcessTxTimeout
1074991316 00000026 T lmacRecycleMPDU
1074786280 00000140 T lmacRetryTxFrame
1074788800 00000020 T lmacRxDone
1074785412 00000062 T lmacSetAcParam
1074785200 00000210 T lmacSetTxFrame
1074991196 00000118 T lmacTxDone
1074990788 00000391 T lmacTxFrame
1074943756 00000015 T localeconv
1074902624 00000058 T localtime
1074902684 00000621 T localtime_r
1073906452 00000146 t lock_acquire_generic
1073906412 00000040 t lock_init_generic
1073499360 00000008 d lock_init_spinlock
1073906624 00000088 t lock_release_generic
1073537168 00000008 B lock_type
1073743268 A longjmp
1073517148 00000292 b loop_netif
1075009288 00000255 t loop_node_add_handler
1073515168 00000004 B loopTaskHandle
1073515152 00000001 B loopTaskWDTEnabled
1074564872 00000111 t low_level_output
1074501548 00000164 T lwip_bind
1074501712 00000292 T lwip_close
1074529072 00000047 t lwip_cyclic_timer
1057010828 00000048 D lwip_cyclic_timers
1074504052 00000155 T lwip_fcntl
1074565284 00000016 t lwip_fcntl_r_wrapper
1074565300 00000060 t lwip_fstat
1074565192 00000010 t lwip_get_socket_select_semaphore
1074503628 00000145 T lwip_getsockopt
1074498752 00001035 t lwip_getsockopt_callback
1074563244 00000266 T lwip_hook_tcp_isn
1074504868 00000038 T lwip_htonl
1074981100 00000020 T lwip_htons
1074504984 00000041 T lwip_init
1074563200 00000042 T lwip_init_tcp_isn
1074503904 00000148 T lwip_ioctl
1074565236 00000046 t lwip_ioctl_r_wrapper
1074495996 00000042 t lwip_link_select_cb
1074572564 00000180 T lwip_netconn_do_bind
1074573404 00000200 T lwip_netconn_do_close
1074569808 00000419 t lwip_netconn_do_close_internal
1074572332 00000230 T lwip_netconn_do_delconn
1074573172 00000230 T lwip_netconn_do_getaddr
1074573604 00000089 T lwip_netconn_do_join_leave_group
1074573696 00000090 T lwip_netconn_do_join_leave_group_netif
1074571740 00000200 T lwip_netconn_do_newconn
1074572996 00000062 T lwip_netconn_do_recv
1074572744 00000251 T lwip_netconn_do_send
1074573060 00000109 T lwip_netconn_do_write
1074570884 00000561 t lwip_netconn_do_writemore
1074571652 00000020 T lwip_netconn_is_deallocated_msg
1074571672 00000065 T lwip_netconn_is_err_msg
1074564852 00000018 t lwip_netif_wifi_free_rx_buffer
1074502192 00000025 T lwip_read
1074496508 00000286 t lwip_recv_tcp
1074502004 00000188 T lwip_recvfrom
1074497892 00000216 t lwip_recvfrom_udp_raw$isra$14
1074502864 00000763 T lwip_select
1074498700 00000049 t lwip_select_dec_sockets_used
1074497528 00000083 t lwip_select_inc_sockets_used_set$part$6
1074498268 00000431 t lwip_selscan
1074502552 00000126 T lwip_send
1074502220 00000332 T lwip_sendto
1074503776 00000125 T lwip_setsockopt
1074499788 00001757 t lwip_setsockopt_callback
1074496040 00000242 t lwip_sock_make_addr
1074502680 00000160 T lwip_socket
1074497296 00000032 t lwip_sockopt_to_ipopt
1074981660 00000102 T lwip_standard_chksum
1074565224 00000010 t lwip_stop_socket_select
1074565204 00000018 t lwip_stop_socket_select_isr
1073517924 00000004 b lwip_task$6759
1074497328 00000093 t lwip_unlink_select_cb
1074502840 00000021 T lwip_write
1057041752 00000024 d MAC_FACTORY
1074810088 00000253 T mac_last_rxbuf_init
1074809048 00000091 T mac_rxbuf_init
1074808560 00000053 T mac_tx_set_duration
1074812232 00000292 T mac_tx_set_htsig
1074808400 00000155 T mac_tx_set_plcp0
1074811988 00000144 T mac_tx_set_plcp1
1074812140 00000077 T mac_tx_set_plcp2
1074808616 00000036 T mac_tx_set_pti
1074809352 00000556 T mac_txrx_init
1057014988 00000004 d magic_cookie
1073804996 A main
1073503836 00000016 d main_flash_arg
1073898784 00000030 t main_flash_region_protected
1075012964 00000054 t main_task
1073949600 00000012 T malloc
1073496652 00000004 d malloc_alwaysinternal_limit
1073920808 00000018 t malloc_internal_wrapper
1073515260 00000004 b map
1074436208 00000048 t mapResolution
1073523436 00000004 b marker$6931
1074674660 00000020 T mbedtls_calloc
1073499720 00000004 d mbedtls_calloc_func
1074984128 00000045 T mbedtls_ct_mpi_uint_cond_assign
1074984072 00000031 T mbedtls_ct_mpi_uint_lt
1074984104 00000023 T mbedtls_ct_uint_if
1074660844 00000012 T mbedtls_ctr_drbg_free
1074660788 00000027 t mbedtls_ctr_drbg_free$part$0
1074660816 00000027 T mbedtls_ctr_drbg_init
1074661268 00000020 T mbedtls_ctr_drbg_random
1074661004 00000264 T mbedtls_ctr_drbg_random_with_add
1074660856 00000021 T mbedtls_ctr_drbg_reseed
1074660588 00000198 t mbedtls_ctr_drbg_reseed_internal
1074660880 00000123 T mbedtls_ctr_drbg_seed
1074665692 00000103 T mbedtls_ecp_check_privkey
1074665244 00000448 T mbedtls_ecp_check_pubkey
1074663440 00000036 T mbedtls_ecp_copy
1074984320 00000074 t mbedtls_ecp_fix_negative
1074984176 00000024 T mbedtls_ecp_get_type
1074663348 00000092 T mbedtls_ecp_group_free
1074663268 00000065 T mbedtls_ecp_group_init
1074670780 00000994 T mbedtls_ecp_group_load
1074665172 00000023 T mbedtls_ecp_is_zero
1074666900 00000029 T mbedtls_ecp_mul
1074665796 00001104 T mbedtls_ecp_mul_restartable
1074666932 00000143 t mbedtls_ecp_mul_shortcuts
1074667176 00000029 T mbedtls_ecp_muladd
1074667076 00000098 T mbedtls_ecp_muladd_restartable
1074665196 00000046 T mbedtls_ecp_point_cmp
1074663336 00000012 T mbedtls_ecp_point_free
1074662604 00000023 t mbedtls_ecp_point_free$part$6
1074663244 00000023 T mbedtls_ecp_point_init
1074663476 00000034 T mbedtls_ecp_set_zero
1074672428 00000038 T mbedtls_entropy_free
1074672468 00000024 T mbedtls_entropy_func
1074672072 00000276 t mbedtls_entropy_func$part$2
1074672348 00000080 T mbedtls_entropy_init
1074674680 00000015 T mbedtls_free
1073499716 00000004 d mbedtls_free_func
1074674820 00000019 T mbedtls_hardware_poll
1074673268 00000012 T mbedtls_hmac_drbg_free
1074672492 00000024 t mbedtls_hmac_drbg_free$part$1
1074672516 00000024 T mbedtls_hmac_drbg_init
1074673248 00000020 T mbedtls_hmac_drbg_random
1074673072 00000176 T mbedtls_hmac_drbg_random_with_add
1074673048 00000021 T mbedtls_hmac_drbg_reseed
1074672984 00000062 T mbedtls_hmac_drbg_seed_buf
1074672540 00000220 T mbedtls_hmac_drbg_update_ret
1074673816 00000076 T mbedtls_md_finish
1074673368 00000102 T mbedtls_md_free
1074984396 00000010 T mbedtls_md_get_size
1074674148 00000112 T mbedtls_md_hmac_finish
1074674260 00000041 T mbedtls_md_hmac_reset
1074673892 00000222 T mbedtls_md_hmac_starts
1074674116 00000032 T mbedtls_md_hmac_update
1074673288 00000057 T mbedtls_md_info_from_type
1074673348 00000018 T mbedtls_md_init
1074673280 00000008 T mbedtls_md_list
1074673472 00000168 T mbedtls_md_setup
1074673640 00000096 T mbedtls_md_starts
1074673736 00000080 T mbedtls_md_update
1057049456 00000012 D mbedtls_md5_info
1074656912 00000191 T mbedtls_mpi_add_abs
1074657476 00000036 T mbedtls_mpi_add_int
1074661564 00000028 t mbedtls_mpi_add_mod
1074661520 00000043 t mbedtls_mpi_add_mod$part$2
1074657428 00000021 T mbedtls_mpi_add_mpi
1074656284 00000060 T mbedtls_mpi_bitlen
1074983812 00000115 T mbedtls_mpi_cmp_abs
1074656872 00000037 T mbedtls_mpi_cmp_int
1074983928 00000144 T mbedtls_mpi_cmp_mpi
1074656020 00000124 T mbedtls_mpi_copy
1074657548 00000782 T mbedtls_mpi_div_mpi
1074676564 00000256 T mbedtls_mpi_exp_mod
1074655728 00000036 T mbedtls_mpi_free
1074658432 00000235 T mbedtls_mpi_gcd
1074983724 00000038 T mbedtls_mpi_get_bit
1074655764 00000075 T mbedtls_mpi_grow
1074983708 00000015 T mbedtls_mpi_init
1074658876 00000706 T mbedtls_mpi_inv_mod
1074983764 00000048 T mbedtls_mpi_lsb
1074656144 00000054 T mbedtls_mpi_lset
1074659792 00000146 T mbedtls_mpi_lt_mpi_ct
1074658332 00000099 T mbedtls_mpi_mod_mpi
1074677216 00000028 T mbedtls_mpi_mul_int
1074661592 00000163 t mbedtls_mpi_mul_mod
1074676820 00000299 T mbedtls_mpi_mul_mpi
1074658668 00000207 T mbedtls_mpi_random
1074656360 00000068 T mbedtls_mpi_read_binary
1074655840 00000063 t mbedtls_mpi_resize_clear
1074659584 00000084 T mbedtls_mpi_safe_cond_assign
1074659668 00000124 T mbedtls_mpi_safe_cond_swap
1074656200 00000083 T mbedtls_mpi_set_bit
1074656548 00000168 T mbedtls_mpi_shift_l
1074662628 00000025 t mbedtls_mpi_shift_l_mod$constprop$17
1074661520 00000043 t mbedtls_mpi_shift_l_mod$part$4
1074656716 00000154 T mbedtls_mpi_shift_r
1074655904 00000113 T mbedtls_mpi_shrink
1074656344 00000015 T mbedtls_mpi_size
1074657104 00000234 T mbedtls_mpi_sub_abs
1074657512 00000036 T mbedtls_mpi_sub_int
1074661456 00000061 t mbedtls_mpi_sub_mod
1074657452 00000021 T mbedtls_mpi_sub_mpi
1074656428 00000118 T mbedtls_mpi_write_binary
1074674304 00000354 T mbedtls_pkcs5_pbkdf2_hmac
1074674696 00000024 T mbedtls_platform_zeroize
1074677980 00000155 T mbedtls_sha1_finish_ret
1074984536 00000026 T mbedtls_sha1_free
1057049444 00000012 D mbedtls_sha1_info
1074677896 00000018 T mbedtls_sha1_init
1074677916 00000020 T mbedtls_sha1_starts_ret
1074677936 00000041 T mbedtls_sha1_update_ret
1074677692 00000203 t mbedtls_sha1_update_ret$part$1
1057049432 00000012 D mbedtls_sha224_info
1074678420 00000155 T mbedtls_sha256_finish_ret
1074984564 00000026 T mbedtls_sha256_free
1057049420 00000012 D mbedtls_sha256_info
1074678344 00000018 T mbedtls_sha256_init
1074678364 00000032 T mbedtls_sha256_starts_ret
1074678396 00000024 T mbedtls_sha256_update_ret
1074678136 00000207 t mbedtls_sha256_update_ret$part$0
1057049408 00000012 D mbedtls_sha384_info
1074678880 00000228 T mbedtls_sha512_finish_ret
1074984592 00000029 T mbedtls_sha512_free
1057049396 00000012 D mbedtls_sha512_info
1074678836 00000018 T mbedtls_sha512_init
1074674720 00000098 T mbedtls_sha512_ret
1074984624 00000043 T mbedtls_sha512_starts_ret
1074678856 00000024 T mbedtls_sha512_update_ret
1074678576 00000259 t mbedtls_sha512_update_ret$part$0
1074943828 00000024 T mbrtowc
1074619124 00000020 T md5_vector
1074505124 00000056 T mem_free
1074981128 00000005 T mem_init
1074505072 00000052 T mem_malloc
1074981136 00000005 T mem_trim
1073851136 A memccpy
1073851172 00000027 A memchr
1073851200 00000070 A memcmp
1073851304 00000261 A memcpy
1073851568 00000063 A memmove
1057004374 00000002 D memp_ARP_QUEUE
1057004384 00000002 D memp_FRAG_PBUF
1074505304 00000020 T memp_free
1057004372 00000002 D memp_IGMP_GROUP
1074981144 00000005 T memp_init
1074505272 00000032 T memp_malloc
1057004364 00000002 D memp_MLD6_GROUP
1057004366 00000002 D memp_ND6_QUEUE
1057004382 00000002 D memp_NETBUF
1057004380 00000002 D memp_NETCONN
1057004368 00000002 D memp_NETDB
1057004362 00000002 D memp_PBUF
1057004360 00000002 D memp_PBUF_POOL
1057004288 00000072 D memp_pools
1057004394 00000002 D memp_RAW_PCB
1057004370 00000002 D memp_SYS_TIMEOUT
1057004390 00000002 D memp_TCP_PCB
1057004388 00000002 D memp_TCP_PCB_LISTEN
1057004386 00000002 D memp_TCP_SEG
1057004378 00000002 D memp_TCPIP_MSG_API
1057004376 00000002 D memp_TCPIP_MSG_INPKT
1057004392 00000002 D memp_UDP_PCB
1074578812 00000033 t memprot_ll_dram0_intr_ena
1074578848 00000028 t memprot_ll_dram0_rtcfast_get_fault_address
1074578848 00000028 t memprot_ll_dram0_sram_get_fault_address
1074579152 00000203 t memprot_ll_dram0_sram_set_prot
1074578512 00000033 t memprot_ll_iram0_intr_ena
1074578548 00000264 t memprot_ll_iram0_sram_set_prot
1074578876 00000033 t memprot_ll_peri1_intr_ena
1074578912 00000033 t memprot_ll_peri2_intr_ena
1073851628 A memrchr
1073851708 00000084 A memset
1073499724 00000004 d memset_func
1073950308 00000062 T memspi_host_erase_block
1073950008 00000035 T memspi_host_erase_chip
1073950244 00000062 T memspi_host_erase_sector
1073950088 00000025 T memspi_host_flush_cache
1073950444 00000029 T memspi_host_init_pointers
1073950372 00000071 T memspi_host_program_page
1073950536 00000042 T memspi_host_read_data_slicer
1073950116 00000128 T memspi_host_read_id_hs
1073949952 00000053 T memspi_host_read_status_hs
1073950044 00000044 T memspi_host_set_write_protect
1073950476 00000058 T memspi_host_write_data_slicer
1073522008 00000004 B mesh_rxcb
1074775072 00000272 T mgd_probe_send_timeout_process
1074437148 00000013 T micros
1074437164 00000025 T millis
1074819592 00000060 T misc_nvs_deinit
1074819652 00000036 T misc_nvs_init
1074819472 00000114 T misc_nvs_load
1074484616 00000076 T mkdir
1074903864 00000894 T mktime
1074553904 00000086 t mld6_delayed_report
1074554076 00000328 T mld6_input
1074554628 00000069 T mld6_joingroup
1074554404 00000222 T mld6_joingroup_netif
1074554896 00000075 T mld6_leavegroup
1074554700 00000196 T mld6_leavegroup_netif
1074981548 00000053 T mld6_lookfor_group
1074554044 00000029 T mld6_report_groups
1074553640 00000263 t mld6_send
1074553992 00000051 T mld6_stop
1074555084 00000008 t mld6_timeout_cb
1074554972 00000110 T mld6_tmr
1074676444 00000118 t modular_inverse$isra$0
1074655568 00000047 t mpi_bigendian_to_host$part$0
1074655616 00000110 t mpi_fill_random_internal
1074677120 00000095 t mpi_mult_mpi_overlong$isra$1
1074984476 00000052 t mpi_to_mem_block
1074984444 00000032 t mpi_words
1074982620 00000060 T mpu_hal_set_region_access
1073521988 00000004 b mul_count
1073948556 00000052 T multi_heap_free
1073948236 00000070 T multi_heap_free_impl
1075014144 00000020 T multi_heap_free_size
1075014040 00000010 T multi_heap_free_size_impl
1073948608 00000052 T multi_heap_get_allocated_size
1073948308 00000012 T multi_heap_get_allocated_size_impl
1075014072 00000072 T multi_heap_get_info
1075013900 00000102 T multi_heap_get_info_impl
1075014004 00000036 t multi_heap_get_info_tlsf
1073948320 00000014 T multi_heap_internal_lock
1073948336 00000012 T multi_heap_internal_unlock
1073948660 00000045 T multi_heap_malloc
1073948348 00000085 T multi_heap_malloc_impl
1073948708 00000106 T multi_heap_realloc
1073948436 00000110 T multi_heap_realloc_impl
1075014052 00000017 T multi_heap_register
1075013824 00000076 T multi_heap_register_impl
1073948548 00000007 T multi_heap_set_lock
1073517832 00000020 b multicast_address
1074895072 00000016 t mutex_create_wrapper
1074895392 00000014 t mutex_delete_wrapper
1073920976 00000017 t mutex_lock_wrapper
1073920964 00000012 t mutex_unlock_wrapper
1073496680 00000008 d mux
1073499520 00000008 d mux$8152
1073520864 00000032 b name_buffer$6972
1074562752 00000126 T nd6_adjust_mld_membership
1073517852 00000001 b nd6_cached_destination_index
1073517853 00000001 b nd6_cached_neighbor_index
1074562664 00000085 T nd6_cleanup_netif
1074561272 00000031 T nd6_clear_destination_cache
1074556552 00000064 t nd6_duplicate_addr_detected
1074555160 00000065 t nd6_find_destination_cache_entry
1074555092 00000066 t nd6_find_neighbor_cache_entry
1074561304 00000113 T nd6_find_route
1074556696 00000091 t nd6_free_neighbor_cache_entry
1074556616 00000079 t nd6_free_q
1074562416 00000039 T nd6_get_destination_mtu
1074561420 00000995 T nd6_get_next_hop_addr_or_queue
1074557064 00003590 T nd6_input
1074556788 00000274 t nd6_new_neighbor_cache_entry
1073517798 00000032 b nd6_ra_buffer
1074562456 00000207 T nd6_reachability_hint
1074981604 00000010 T nd6_restart_netif
1074556064 00000223 t nd6_select_router$isra$0
1074555228 00000296 t nd6_send_na
1074555740 00000323 t nd6_send_ns
1074556288 00000263 t nd6_send_q$part$2
1074555524 00000216 t nd6_send_rs
1074560656 00000614 T nd6_tmr
1073517830 00000001 b nd6_tmr_rs_reduction
1073524652 00000220 B neighbor_cache
1073526588 00000004 B net80211_funcs
1074681800 00000029 T net80211_funcs_deinit
1074681748 00000052 T net80211_funcs_init
1074818824 00000040 T net80211_printf
1074681692 00000051 W net80211_softap_funcs_init
1074573852 00000069 T netbuf_alloc
1074573824 00000027 T netbuf_delete
1074573924 00000020 T netbuf_free
1057016553 00000001 D netconn_aborted
1074571940 00000122 T netconn_alloc
1074568096 00000030 t netconn_apimsg
1074568408 00000125 T netconn_bind
1074568128 00000036 t netconn_close_shutdown
1057016551 00000001 D netconn_closed
1074568308 00000040 T netconn_delete
1057016554 00000001 D netconn_deleted
1074572144 00000186 t netconn_drain
1074568828 00000028 T netconn_err
1074572064 00000078 T netconn_free
1074568348 00000059 T netconn_getaddr
1074569376 00000044 T netconn_join_leave_group
1074569420 00000048 T netconn_join_leave_group_netif
1074569468 00000056 t netconn_mark_mbox_invalid
1074568164 00000112 T netconn_new_with_proto_and_callback
1074568276 00000032 T netconn_prepare_delete
1074568856 00000286 t netconn_recv_data
1074569180 00000159 t netconn_recv_data_tcp
1074569340 00000034 T netconn_recv_tcp_pbuf_flags
1074569144 00000034 T netconn_recv_udp_raw_netbuf_flags
1057016552 00000001 D netconn_reset
1074568576 00000028 T netconn_send
1074568536 00000040 T netconn_tcp_recvd
1074568796 00000029 T netconn_write_partly
1074568604 00000191 T netconn_write_vectors_partly
1074505852 00000371 T netif_add
1073524368 00000004 B netif_default
1074505324 00000028 t netif_do_ip_addr_changed
1074505656 00000109 t netif_do_set_ipaddr
1074507408 00000058 T netif_find
1074488576 00000020 t netif_from_if
1074488488 00000087 t netif_from_if$part$2
1074507376 00000031 T netif_get_by_index
1074507256 00000118 T netif_get_ip6_addr_match
1074506500 00000086 T netif_init
1074507072 00000058 T netif_ip6_addr_set
1074506812 00000260 T netif_ip6_addr_set_parts
1074507132 00000123 T netif_ip6_addr_set_state
1074505580 00000075 t netif_issue_reports
1073524364 00000004 B netif_list
1074506588 00000184 T netif_loop_output
1074506772 00000018 t netif_loop_output_ipv4
1074506792 00000018 t netif_loop_output_ipv6
1074505532 00000046 t netif_loopif_init
1074981160 00000008 t netif_null_output_ip4
1074981152 00000008 t netif_null_output_ip6
1073517440 00000001 b netif_num
1074505352 00000178 T netif_poll
1074506316 00000139 T netif_remove
1074490500 00000030 t netif_send_mldv6
1074505768 00000082 T netif_set_addr
1074506224 00000010 T netif_set_default
1074506276 00000040 T netif_set_down
1074981168 00000017 T netif_set_garp_flag
1074506456 00000044 T netif_set_link_up
1074506236 00000039 T netif_set_up
1073949592 00000005 T newlib_include_assert_impl
1073949744 00000005 T newlib_include_heap_impl
1074981896 00000005 T newlib_include_pthread_impl
1074981916 00000005 T newlib_include_syscalls_impl
1073517512 00000004 b next_timeout
1074981616 00000041 T node_remove_from_list
1073912052 00000309 T noise_check_loop
1073518372 00000004 b non_iram_int_disabled
1073518368 00000001 b non_iram_int_disabled_flag
1073518376 00000004 b non_iram_int_mask
1074462192 00000061 T nvs_close
1074461772 00000058 T nvs_commit
1074461408 00000062 T nvs_erase_key
1074461220 00000013 T nvs_flash_init
1074461160 00000060 T nvs_flash_init_partition
1074462172 00000020 T nvs_get_blob
1074461900 00000066 T nvs_get_i8
1074462036 00000066 T nvs_get_u16
1074462104 00000066 T nvs_get_u32
1074461968 00000066 T nvs_get_u8
1074461384 00000022 T nvs_open
1074461236 00000146 T nvs_open_from_partition
1074461832 00000066 T nvs_set_blob
1074461472 00000074 T nvs_set_i8
1074461624 00000074 T nvs_set_u16
1074461700 00000070 T nvs_set_u32
1074461548 00000074 T nvs_set_u8
1073515836 00000040 b ob$14470
1073502860 00000004 d object_mutex
1074779808 00000011 T offchan_in_progress
1074779820 00000028 T offchan_recv_action
1074779848 00000046 T offchan_send_action_tx_status
1074620404 00000024 T omac1_aes_128
1074620376 00000025 T omac1_aes_128_vector
1074619984 00000392 T omac1_aes_vector
1073499688 00000004 d one$3858
1073522000 00000004 b op_complete_sem
1073774788 A open
1073910344 00000046 T open_i2c_xpd
1074484296 00000087 T opendir
1074620968 00000017 T os_get_random
1074620924 00000025 T os_get_time
1074650556 00000034 T os_memdup
1074620952 00000013 T os_random
1074620988 00000023 T os_sleep
1073907764 00000090 T os_timer_arm
1073907680 00000083 T os_timer_arm_us
1073907856 00000018 T os_timer_disarm
1074655544 00000024 T os_timer_done
1074655460 00000082 T os_timer_setfn
1073524020 00000008 b p_i2c_obj
1073524060 00000004 b p_ledc_obj
1073524080 00000016 b p_rmt_obj
1073524096 00000016 b p_timer_obj
1073515188 00000008 b p_uart_obj
1057068424 00000012 d p05$3440
1074820360 00000147 T pa_i2c_init
1074820520 00000298 T pa_i2c_track
1073524188 00000004 B pAkDiret
1073524180 00000004 B pAKGuideGlob
1073524184 00000004 B pAkTrans
1073900704 00000026 T panic_abort
1074478236 00000044 T panic_arch_fill_info
1073900764 00000016 t panic_enable_cache
1074980500 00000007 T panic_get_address
1074980508 00000008 T panic_get_cause
1074477088 00000190 t panic_handler
1074478404 00000032 T panic_print_backtrace
1074475976 00000042 t panic_print_char_uart
1074476180 00000061 T panic_print_dec
1074476136 00000042 T panic_print_hex
1074478048 00000187 T panic_print_registers
1074476096 00000022 T panic_print_str
1074477324 00000027 T panic_restart
1074980516 00000007 T panic_set_address
1074478280 00000121 T panic_soc_fill_info
1073900780 00000018 T panicHandler
1073524140 00000004 B pAPListHead
1073524136 00000004 B pAPListTral
1073515184 00000001 b pat_flg$7922
1074979460 00000053 T pathToFileName
1074619680 00000089 T pbkdf2_sha1
1074507688 00000016 T pbuf_add_header
1074507704 00000016 T pbuf_add_header_force
1074507512 00000102 t pbuf_add_header_impl
1074508000 00000334 T pbuf_alloc
1074507616 00000072 T pbuf_alloc_reference
1074508588 00000079 T pbuf_cat
1074508668 00000019 T pbuf_chain
1074981220 00000022 T pbuf_clen
1074509292 00000050 T pbuf_clone
1074508920 00000026 T pbuf_copy
1074508948 00000101 T pbuf_copy_partial
1074508688 00000230 T pbuf_copy_partial_pbuf
1074507828 00000172 T pbuf_free
1074508480 00000057 T pbuf_free_header
1074507468 00000043 t pbuf_free_ooseq_callback
1073524372 00000001 B pbuf_free_ooseq_pending
1074509384 00000024 T pbuf_get_at
1074507796 00000032 T pbuf_header_force
1074508336 00000143 T pbuf_realloc
1074508540 00000046 T pbuf_ref
1074507720 00000074 T pbuf_remove_header
1074981188 00000031 t pbuf_skip_const
1074509052 00000118 T pbuf_take
1074509172 00000118 T pbuf_take_at
1074509344 00000038 T pbuf_try_get_at
1074832936 00000974 T pbus_rx_dco_cal_1step
1073524196 00000004 B pCHListHead
1073524192 00000004 B pCHListTral
1073933528 00000038 T pcTaskGetName
1074454628 00000246 t periph_ll_get_clk_en_mask
1074454876 00000264 t periph_ll_get_rst_en_mask
1074455140 00000046 t periph_ll_get_rst_en_reg
1074455360 00000168 T periph_module_disable
1074455188 00000172 T periph_module_enable
1074455528 00000107 T periph_module_reset
1073496216 00000008 d periph_spinlock
1073524200 00000004 B pETGuideGlob
1073523336 00000001 B phy_11p_enable
1073523335 00000001 B phy_11p_mode
1074829968 00000516 T phy_11p_set
1073523337 00000002 B phy_analog_delay
1074828864 00000618 T phy_analog_delay_cal
1073536568 00000056 B phy_chan_dc
1074819688 00000016 T phy_change_channel
1073914988 00000126 T phy_close_rf
1074830536 00000441 T phy_dig_reg_backup
1073910512 00000058 T phy_dis_hw_set_freq
1073523360 00000001 B phy_dis_pwdet_one
1074828572 00000011 T phy_eco_version_sel
1073910572 00000024 T phy_en_hw_set_freq
1073907256 00000020 T phy_enter_critical
1073907276 00000014 T phy_exit_critical
1073523331 00000001 B phy_force_wifi_chan_en
1073523332 00000002 B phy_freq_offset
1073502717 00000001 D phy_freq_wifi_only
1074819712 00000102 T phy_get_i2c_data
1074828188 00000008 T phy_get_rf_cal_version
1074827608 00000104 T phy_get_romfunc_addr
1073784972 A phy_get_romfuncs
1074473632 00000012 T phy_get_tsens_value
1074837944 00000127 T phy_get_vdd33
1073909916 00000415 T phy_i2c_init1
1073909580 00000279 T phy_i2c_init2
1073536497 00000010 B phy_i2c_reg_data1
1073536476 00000010 B phy_i2c_reg_data2
1057045064 00000128 d phy_init_data
1074827356 00000186 T phy_init_param_new
1074827088 00000261 T phy_init_param_old
1073523342 00000002 B phy_meas_noise_floor
1073502718 00000118 D phy_param
1074818744 00000040 T phy_printf
1073914828 00000078 T phy_reg_init
1074828196 00000139 T phy_rfcal_data_check
1073502840 00000001 D phy_rfrx_gain_max
1073536508 00000060 B phy_rxbb_dc
1073536624 00000048 B phy_rxrf_dc
1074820976 00000176 T phy_set_freq
1074828712 00000022 T phy_set_most_tpw
1073915552 00000068 T phy_set_rate
1074473596 00000034 T phy_set_tsens_power
1073523330 00000001 B phy_sw_set_chan_en
1074828592 00000079 T phy_tx_pwr_limit
1073536901 00000040 B phy_version_str
1073915228 00000323 T phy_wakeup_init
1074830980 00000010 T phy_xpd_tsens
1074436700 00000122 W pinMode
1073916512 00000105 T pkdet_vol_start
1073517960 00000004 b plist
1073523323 00000001 B pll_cap_print_en
1073502716 00000001 D pll_cap_track_en
1073523324 00000004 B pll_track_timer
1073910732 00000430 T pll_vol_cal
1074791960 00000092 T pm_active_timeout_process
1074789520 00000090 T pm_allow_tx
1074793972 00000267 T pm_attach
1075005984 00000027 T pm_beacon_monitor_tbtt_timeout_process
1075005576 00000064 T pm_beacon_monitor_timeout_process
1074791144 00000042 T pm_beacon_timestamp_statistic
1075005124 00000032 T pm_check_state
1074791268 00000228 T pm_coex_schm_process
1074791560 00000046 T pm_coex_schm_process_restart
1074791496 00000062 T pm_coex_schm_timeout_process
1074791800 00000158 T pm_coex_slice_timeout_process
1074791616 00000178 T pm_coex_tbtt_process
1074792124 00000008 T pm_connectionless_wake_interval_timeout_process
1074792132 00000038 T pm_connectionless_wake_window_timeout_process
1074794244 00000141 T pm_deattach
1074789692 00000019 T pm_disable_disconnected_sleep_delay_timer
1075002456 00000019 T pm_disable_dream_timer
1075004536 00000019 T pm_disable_sleep_delay_timer
1074789968 00000052 T pm_disconnected_sleep
1074792088 00000035 T pm_disconnected_sleep_delay_timeout_process
1074793052 00000046 T pm_disconnected_start
1074793100 00000034 T pm_disconnected_stop
1075004556 00000197 T pm_dream
1074792052 00000016 T pm_dream_timeout_process
1075000712 00000102 T pm_enable_active_timer
1074789712 00000058 T pm_enable_disconnected_sleep_delay_timer
1075002476 00000040 T pm_enable_dream_timer
1074789648 00000039 T pm_enable_sleep_delay_timer
1074794588 00000039 T pm_enable_sta_disconnected_power_management
1074985296 00000005 T pm_force_scan_unlock
1074790628 00000076 T pm_go_to_sleep
1074790704 00000075 T pm_go_to_wake
1075002044 00000005 T pm_hmac_rx_data_process
1074791188 00000069 T pm_is_in_wifi_slice_threshold
1074789508 00000011 T pm_is_open
1075004012 00000018 T pm_is_waked
1075005156 00000108 T pm_keep_alive
1075002516 00000061 T pm_local_tsf_process
1074789956 00000008 T pm_mac_sleep
1074789948 00000008 T pm_mac_wakeup
1074791080 00000060 T pm_mesh_set_next_tbtt
1074789780 00000096 T pm_noise_check
1074789612 00000013 T pm_noise_check_disable
1074789628 00000013 T pm_noise_check_enable
1074985288 00000005 T pm_noise_check_process
1074790116 00000149 T pm_off_channel
1075006188 00000186 T pm_on_beacon_rx
1074790512 00000108 T pm_on_channel
1074792904 00000008 T pm_on_coex_schm_process_restart
1075000892 00000028 T pm_on_data_rx
1074793016 00000013 T pm_on_data_tx
1074793032 00000017 T pm_on_data_tx_done
1074792916 00000098 T pm_on_probe_resp_rx
1075006156 00000016 T pm_on_tbtt
1075006172 00000016 T pm_on_tsf_timer
1075004156 00000380 T pm_parse_beacon
1075005268 00000307 T pm_process_tim
1074789880 00000012 T pm_register_pm_tx_null_cb
1075006012 00000143 T pm_rx_beacon_process
1075000816 00000076 T pm_rx_data_process
1074789896 00000050 T pm_send_nullfunc
1074790068 00000048 T pm_send_probe_start
1074790464 00000045 T pm_send_probe_stop
1074792864 00000018 T pm_send_sleep_null_cb
1074792884 00000018 T pm_send_wake_null_cb
1074791008 00000070 T pm_set_next_tbtt
1074794400 00000185 T pm_set_sleep_type
1075004756 00000367 T pm_sleep
1074792068 00000020 T pm_sleep_delay_timeout_process
1075004036 00000081 T pm_sleep_for
1074793144 00000326 T pm_start
1074793496 00000426 T pm_stop
1075005648 00000334 T pm_tbtt_process
1074792460 00000084 T pm_tx_data_done_process
1074792172 00000288 T pm_tx_data_process
1074792544 00000319 T pm_tx_null_data_done_process
1074790328 00000134 T pm_update_by_connectionless_status
1075002580 00000191 T pm_update_next_tbtt
1074790788 00000218 T pm_update_params
1074790268 00000051 T pm_wake_done
1074790020 00000047 T pm_wake_up
1074654600 00000457 T pmksa_cache_add
1074983696 00000012 T pmksa_cache_clear_current
1074655060 00000057 T pmksa_cache_deinit
1074654408 00000083 t pmksa_cache_expire
1074654492 00000108 T pmksa_cache_flush
1074654280 00000030 t pmksa_cache_free_entry
1074655120 00000062 T pmksa_cache_get
1074983684 00000010 T pmksa_cache_get_current
1074655184 00000088 T pmksa_cache_get_opportunistic
1074655380 00000080 T pmksa_cache_init
1074655272 00000107 T pmksa_cache_set_current
1074654312 00000096 t pmksa_cache_set_expiration
1073917068 00000074 T pocket_sar_power
1073948816 00000059 t poison_allocated_region
1074571448 00000101 t poll_tcp
1073518460 00000004 B port_interruptNesting
1073497248 D port_IntStack
1073499344 D port_IntStackTop
1073499348 D port_switch_flag
1073518456 00000004 B port_uxCriticalNesting
1073518452 00000004 B port_uxOldInterruptState
1073518468 00000004 B port_xSchedulerRunning
1073523334 00000001 B power_cal_offset
1074798360 00000181 T pp_attach
1074795028 00000091 T pp_coex_tx_release
1074992216 00000148 T pp_coex_tx_request
1074796664 00000329 T pp_create_task
1074796996 00000047 T pp_deattach
1074794796 00000025 T pp_default_event_handler
1074797424 00000111 T pp_delete_task
1074985392 00000046 T pp_gettid
1075003304 00000041 T pp_hdrsize
1073908036 00000286 T pp_post
1074991960 00000018 T pp_process_hmac_waiting_txq
1074794744 00000012 T pp_register_config_cb
1074794776 00000012 T pp_register_michael_mic_failure_cb
1074794728 00000012 T pp_register_net80211_tx_cb
1074794760 00000012 T pp_register_timer_cb
1073508048 00000032 D pp_sig_cnt
1074798964 00000095 T pp_stop_sw_txq
1075002800 00000130 T pp_timer_do_process
1074799500 00000026 T pp_timer_process
1074799488 00000012 T pp_timer_register_post_cb
1074798680 00000149 T ppAMPDU2Normal
1074798552 00000124 T ppAssembleAMPDU
1074795120 00000123 T ppAssembleMicHdr
1074993504 00000073 T ppCalFrameTimes
1074795248 00000232 T ppCalTkipMic
1074994000 00000663 T ppCalTxAMPDULength
1074795820 00000123 T ppCheckTxAMPDUlength
1074797860 00000173 T ppCheckTxIdle
1074795000 00000028 T ppCheckTxQIdle
1074795484 00000035 T ppClearRxFragment
1074798900 00000064 T ppClearTxq
1075006580 00000034 T ppDequeueRxq_Locked
1074796312 00000034 T ppDequeueTxDone_Locked
1074795520 00000050 T ppDequeueTxQ
1074798832 00000067 T ppDirectRecycleAmpdu
1074797816 00000044 T ppDisableQueue
1074797268 00000073 T ppEnableQueue
1075006552 00000027 T ppEnqueueRxq
1074796236 00000075 T ppEnqueueTxDone
1074795588 00000232 T ppFillAMPDUBar
1074799276 00000010 T ppGetTaskHdl
1074797044 00000132 T ppGetTxframe
1074797176 00000091 T ppInitTxq
1074763676 00000276 T ppInstallKey
1074992892 00000339 T ppMapTxQueue
1074797536 00000203 T ppMapWaitTxq
1074798184 00000165 T ppPrepareBarFrame
1075000920 00000046 T ppProcessRxPktHdr
1074994664 00000246 T ppProcessTxQ
1074797744 00000072 T ppProcessWaitingQueue
1074992112 00000104 T ppProcTxCallback
1074796364 00000254 T ppProcTxDone
1074993248 00000256 T ppProcTxSecFrame
1074796168 00000024 T ppRecordBarRRC
1074799060 00000099 T ppRecycleAmpdu
1074794924 00000073 T ppRecycleRxPkt
1074794824 00000028 T ppRegisterRxCallback
1074794852 00000066 T ppRegisterTxCallback
1074799160 00000116 T ppRegressAmpdu
1074795948 00000218 T ppReSendBar
1074994920 00000879 T ppResortTxAMPDU
1074992364 00000029 T ppResumeTxAMPDU
1075000980 00000874 T ppRxFragmentProc
1075006620 00000217 T ppRxPkt
1075006376 00000173 T ppRxProtoProc
1074992636 00000254 T ppSearchTxframe
1074992400 00000235 T ppSearchTxQueue
1074798036 00000132 T ppSelectNextQueue
1074985384 00000005 T ppSetInterface
1074997964 00000025 T ppSubFromAMPDU
1074995812 00000440 T ppTask
1074993592 00000360 T ppTxPkt
1074993952 00000036 T ppTxPktForceWaked
1074991980 00000130 T ppTxProtoProc
1074797344 00000076 T ppTxqEmpty
1074796192 00000036 T ppTxqUpdateBitmap
1073524512 00000140 B prefix_list
1073524260 00000004 b prev_tzenv
1073515940 00000004 b primary_vfs_index
1074476120 00000013 t print_abort_details
1074477464 00000367 t print_cache_err_details
1074477944 00000104 t print_debug_exception_details
1074477380 00000082 t print_illegal_instruction_details
1074477832 00000111 t print_memprot_err_details
1074477280 00000042 t print_state
1073900180 00000025 t print_str
1074904816 00000064 T printf
1074649968 00000260 T printf_decode
1074458008 00000082 t process_appended_hash_and_sig$constprop$1
1074457604 00000198 t process_checksum
1074457804 00000203 t process_image_header
1074458092 00000483 t process_segments$constprop$0
1074897848 00000066 T protocomm_delete
1073524124 00000004 b prov_ctx
1073524128 00000004 b prov_ctx_lock
1074896752 00000264 t prov_stop_task
1073925464 00000135 t prvAcquireItemNoSplit
1073932976 00000168 t prvAddCurrentTaskToDelayedList$constprop$9
1073932696 00000277 t prvAddNewTaskToReadyList$isra$6
1073927940 00000042 t prvCheckItemAvail
1073926944 00000076 t prvCheckItemFitsByteBuffer
1073925820 00000135 t prvCheckItemFitsDefault
1073929200 00000035 t prvCopyDataFromQueue
1073928932 00000126 t prvCopyDataToQueue
1073926228 00000197 t prvCopyItemAllowSplit
1073926108 00000118 t prvCopyItemByteBuf
1073926428 00000032 t prvCopyItemNoSplit
1073932480 00000053 t prvDeleteTCB
1073932256 00000039 t prvDeleteTLS
1073928040 00000070 t prvGetCurMaxSizeAllowSplit
1073928112 00000028 t prvGetCurMaxSizeByteBuf
1073927984 00000053 t prvGetCurMaxSizeNoSplit
1073927020 00000046 t prvGetFreeSize
1073924832 00000150 t prvGetItemByteBuf
1073925220 00000241 t prvGetItemDefault
1073932536 00000160 t prvIdleTask
1073932296 00000182 t prvInitialiseNewTask$isra$3
1073925956 00000152 t prvInitializeNewRingbuffer
1073928896 00000035 t prvIsQueueEmpty
1073929060 00000138 t prvNotifyQueueSetContainer
1073926460 00000244 t prvReceiveGeneric
1073926704 00000177 t prvReceiveGenericFromISR
1073932208 00000046 t prvResetNextTaskUnblockTime
1073926884 00000058 t prvReturnItemByteBuf
1073924984 00000236 t prvReturnItemDefault
1073925600 00000217 t prvSendItemDoneNoSplit
1073929236 00000164 t prvUnlockQueue
1056998352 00000032 d pseudo_reason$5358
1073524132 00000004 B psni_info
1073903952 00000790 T psram_enable
1074581004 00000204 T psram_exec_cmd
1074581252 00000037 T psram_get_size
1074581292 00000023 T psram_is_32mbit_ver0
1074581208 00000043 t psram_read_id$constprop$8
1074580936 00000065 t psram_set_spi1_cmd_cs_timing$part$0
1074437436 00000111 T psramInit
1074472860 00000034 T pthread_cancel
1074473384 00000039 T pthread_getspecific
         U pthread_include_pthread_cond_impl
1074980452 00000005 T pthread_include_pthread_impl
1074980460 00000005 T pthread_include_pthread_local_storage_impl
1074980468 00000005 T pthread_include_pthread_rwlock_impl
1074473244 00000070 T pthread_key_create
1074473316 00000068 T pthread_key_delete
1073496264 00000008 D pthread_lazy_init_lock
1074473172 00000070 t pthread_local_storage_thread_deleted_callback
1074473020 00000103 T pthread_mutex_destroy
1074472896 00000075 T pthread_mutex_init
1074472972 00000046 t pthread_mutex_init_if_static$part$3
1073899064 00000040 T pthread_mutex_lock
1073898996 00000068 t pthread_mutex_lock_internal
1073899104 00000085 T pthread_mutex_unlock
1074981888 00000007 T pthread_setcancelstate
1074473424 00000171 T pthread_setspecific
1073524204 00000004 B pTouchGlob
1073500920 00000004 D pTxRx
1074985356 00000026 T putle32
1074905060 00000018 T puts
1073949600 00000012 T pvalloc
1073935352 00000034 T pvTaskGetThreadLocalStoragePointer
1073936844 00000051 T pvTaskIncrementMutexHeldCount
1074835612 00000180 T pwdet_code_cal
1073915728 00000140 T pwdet_sar2_init
1074831240 00000114 T pwdet_tone_start
1074985880 00000032 T pwr_level_to_pwr
1074741276 00000190 T pwrsave_flushq
1073519132 00000004 B pxCurrentTCB
1073518588 00000004 b pxDelayedTaskList
1073937336 00000013 T pxGetDelayedTaskList
1073937352 00000013 T pxGetOverflowDelayedTaskList
1073937376 00000008 T pxGetSuspendedTaskList
1073937368 00000008 T pxGetTasksWaitingTermination
1073937316 00000018 T pxListGetReadyPendingTask
1073937296 00000018 T pxListGetReadyTask
1073518584 00000004 b pxOverflowDelayedTaskList
1073938620 00000117 T pxPortInitialiseStack
1073518632 00000500 b pxReadyTasksLists
1073937552 00000247 T pxTaskGetNext
1073938408 00000008 T pxTCBGetEndOfStack
1073938392 00000007 T pxTCBGetStateListItem
1073938400 00000007 T pxTCBGetTopOfStack
1073743604 00000716 A qsort
1074895036 00000020 t queue_create_wrapper
1074895260 00000020 t queue_recv_wrapper
1073920940 00000021 t queue_send_from_isr_wrapper
1074894988 00000021 t queue_send_to_back_wrapper
1074894964 00000021 t queue_send_to_front_wrapper
1074895280 00000021 t queue_send_wrapper
1074939936 00000270 t quorem
1074583208 00000009 T raise
1074583148 00000015 t raise_r_stub
1073911268 00000068 T ram_enable_agc
1074823424 00000272 T ram_gen_rx_gain_table
1074836012 00000188 T ram_get_chan_target_power
1074831456 00000026 T ram_get_fm_sar_dout
1073908568 00000026 T ram_get_i2c_read_mask
1074985920 00000084 T ram_get_rate_fcc_index
1074834284 00000233 T ram_get_rfcal_rxiq_data
1074986004 00000074 T ram_get_tx_gain_value
1074831088 00000050 T ram_index_to_txbbgain
1074831924 00000810 T ram_pbus_rx_dco_cal
1073915972 00000031 T ram_read_sar_dout
1074834868 00000284 T ram_rfcal_txcap
1074834052 00000225 T ram_rxiq_cover_mg_mp
1074833920 00000130 T ram_rxiq_set_reg
1073916064 00000082 T ram_set_chan_cal_interp
1073915632 00000083 T ram_set_noise_floor
1074823108 00000297 T ram_set_pbus_mem
1073916148 00000116 T ram_set_txcap_reg
1074831484 00000043 T ram_temp_to_power
1074837176 00000205 T ram_tester_wifi_cali
1073912404 00000090 T ram_tx_paon_set
1074830992 00000088 T ram_txbbgain_to_index
1074831528 00000376 T ram_txiq_cover
1074837656 00000164 T ram_txpwr_cal_track
1074837572 00000071 T ram_txpwr_correct
1074836216 00000160 T ram_wifi_tx_dig_gain_reg
1074820828 00000139 T ram_write_pll_cap_mem
1074905164 00000126 T rand
1073773300 A rand_r
1057043204 00000088 D range_read_addr_blocks
1074509756 00000170 T raw_bind
1074981244 00000021 T raw_bind_netif
1074509408 00000345 T raw_input
1074510756 00000230 T raw_netif_ip_addr_changed
1074510680 00000047 T raw_new
1074510728 00000025 T raw_new_ip_type
1073517444 00000004 b raw_pcbs
1074981268 00000010 T raw_recv
1074510632 00000046 T raw_remove
1074510608 00000021 T raw_send
1074510376 00000230 T raw_sendto
1074509928 00000447 T raw_sendto_if_src
1074834528 00000332 T rc_cal
1074803388 00000083 T rc_disable_trc
1074803472 00000027 T rc_disable_trc_by_interface
1074803980 00000190 T rc_enable_trc
1074801552 00000008 T rc_get_default_sched
1075001964 00000078 T rc_get_trc
1074803500 00000053 T rc_get_trc_by_index
1074799648 00000023 T RC_GetAckTime
1074799748 00000070 T RC_GetBlockAckTime
1074799672 00000073 T RC_GetCtsTime
1074803864 00000106 T rc_set_per_conn_fix_rate
1074985448 00000007 T RC_SetBasicRate
1073501988 00000072 D rc11BSchedTbl
1073502156 00000156 D rc11GSchedTbl
1073502420 00000168 D rc11NSchedTbl
1074619772 00000211 T rc4_skip
1074802336 00000149 T rcAmpduLowerRate
1074803184 00000066 T rcAttach
1074800452 00000042 T rcClearCurAMPDUSched
1074800416 00000036 T rcClearCurSched
1074800288 00000056 T rcGet11BHighestRateIdx
1074800192 00000092 T rcGet11GHighestRateIdx
1074800084 00000104 T rcGet11NHighestRateIdx
1074801572 00000118 T rcGetAmpduSched
1074985680 00000024 T rcGetDefaultHigestRateIdx
1074800344 00000066 T rcGetHighestRateIdx
1074801700 00000118 T rcGetRate
1074996956 00000174 T rcGetSched
1074985532 00000028 T rcLoRaRate2SchedIdx
1073502588 00000024 D rcLoRaSchedTbl
1074801136 00000061 T rcLowerSched
1073502060 00000096 D rcP2P11GSchedTbl
1073502312 00000108 D rcP2P11NSchedTbl
1074803020 00000162 T rcReachRetryLimit
1074985636 00000041 T rcSetTxAmpduLimit
1074801256 00000108 T rcTxUpdatePer
1074985704 00000078 T rcUpdateAckSnr
1074799924 00000153 T rcUpdateAMPDUParam
1074800568 00000565 T rcUpdatePhyMode
1074802596 00000402 T rcUpdateRate
1075001856 00000106 T rcUpdateRxDone
1074996252 00000096 T rcUpdateTxDone
1074996356 00000594 T rcUpdateTxDoneAmpdu2
1074801200 00000050 T rcUpSched
1073523341 00000001 B re_entry
1073496628 00000004 D reachable_time
1074480848 00000114 t read_cal_channel$isra$10
1074844356 00000212 t read_encoded_value_with_base
1074846928 00000212 t read_encoded_value_with_base
1073896724 00000096 t read_id_core
1074455856 00000136 t read_otadata
1073910596 00000054 T read_pll_cap
1073916620 00000047 T read_sar2_code
1074844296 00000060 t read_sleb128
1074846564 00000060 t read_sleb128
1074846524 00000037 t read_uleb128
1074844256 00000037 t read_uleb128
1074484384 00000070 T readdir
1073949612 00000017 T realloc
1073920868 00000020 t realloc_internal_wrapper
1073521768 00000004 b reason
1056998384 00000160 d reason$5352
1073499664 00000008 d reason_spinlock
1073522539 00000001 B reconnect_flag
1074895056 00000016 t recursive_mutex_create_wrapper
1073517460 00000002 b recv_acked
1073517452 00000004 b recv_data
1073517456 00000001 b recv_flags
1074570704 00000179 t recv_raw
1074570244 00000174 t recv_tcp
1074569524 00000231 t recv_udp
1073515216 00000031 b ref_counts
1073902956 00000058 T regi2c_ctrl_read_reg_mask
1073903016 00000052 T regi2c_ctrl_write_reg
1073903068 00000058 T regi2c_ctrl_write_reg_mask
1074829640 00000314 T register_chipv7_phy
1074828672 00000040 T register_chipv7_phy_init_param
1074574776 00000043 t register_heap
1073525352 00000004 B registered_heaps
1073496656 00000008 d registered_heaps_write_lock$5098
1073898620 00000010 t release_buffer_malloc
1074905868 00000020 T rename
1073517956 00000001 b renew
1073530129 00000007 B request_f
1074622048 00000024 T resend_eapol_handle
1057155748 00000008 d reserved_region_dram_data
1057155732 00000008 d reserved_region_extram_data_region
1057155740 00000008 d reserved_region_iram_code
1057155756 00000008 d reserved_region_rom_data_region
1057155716 00000008 d reserved_region_rtc_retain_mem
1057155724 00000008 d reserved_region_rtcram_data
1074473708 00000052 t reset_hw_timer
1073537088 00000020 B Restart_delay_timer
1073524228 00000020 B restart_ht20_timer
1073524208 00000020 B restart_ht40_timer
1073496624 00000004 D retrans_timer
1074979544 00000029 t reverse
1074484528 00000015 T rewinddir
1074455992 00000050 t rewrite_ota_seq$part$1
1074827852 00000329 T rf_cal_data_backup
1074827712 00000139 T rf_cal_data_recovery
1074822124 00000138 T rf_init
1073502843 00000001 D rfcal_bb_atten_init
1074835308 00000290 T rfcal_txiq
1073908992 00000116 T rfpll_init
1073523328 00000002 B rfpll_offset_delta
1073523348 00000002 B rfpll_ref_vol
1074838460 00000164 T rfrx_cal_mode
1074838624 00000171 T rfrx_dcap_cal
1074484692 00000075 T rmdir
1061249024 A RMT
1074887224 00001376 T rmt_config
1073503024 00000040 d rmt_contex
1074889216 00000352 T rmt_driver_install
1073919160 00001350 t rmt_driver_isr_default
1074888708 00000506 T rmt_driver_uninstall
1073919096 00000062 t rmt_fill_memory
1074890376 00000161 T rmt_get_counter_clock
1074987808 00000141 T rmt_hal_rx_channel_reset
1074888600 00000108 T rmt_isr_register
1074886300 00000068 t rmt_module_enable
1057060612 00000040 D rmt_periph_signals
1073537024 00000004 B rmt_reserved_channels
1074886976 00000247 T rmt_set_gpio
1074886700 00000273 T rmt_set_tx_thr_intr_en
1074889732 00000238 T rmt_translator_init
1074886368 00000330 T rmt_tx_start
1074889568 00000163 T rmt_wait_tx_done
1074889972 00000401 T rmt_write_sample
1061250048 A RMTMEM
1073782728 A rom_ant_dft_cfg
1073782844 A rom_ant_wifirx_cfg
1073782776 A rom_ant_wifitx_cfg
1073503920 00000004 D rom_flash_chip_dummy
1073503916 00000004 D rom_flash_chip_dummy_hpm
1073784340 A rom_phy_chan_filt_set
1073783480 A rom_phy_disable_low_rate
1073783424 A rom_phy_enable_low_rate
1073781816 A rom_read_hw_noisefloor
1073503708 00000004 D rom_spiflash_api_funcs
1073782060 A rom_wifi_rifs_mode_en
1073855696 A roundup2
1073499692 00000008 d Rp$4051
1073499700 00000008 d Rp$4055
1073499708 00000008 d Rp$4059
1074983120 00000087 T rsn_cipher_put_suites
1074639944 00000123 T rsn_pmkid
1074638640 00000066 t rsn_selector_to_bitfield
1073522444 00000001 B rssi_index
1074801824 00000316 T rssi_margin
1073522448 00000008 B rssi_saved
1057037288 00000064 d rtable$3768
1073922088 00000094 T rtc_clk_32k_enable
1073921956 00000130 T rtc_clk_32k_enable_internal
1073922184 00000133 T rtc_clk_8m_enable
1073922320 00000021 T rtc_clk_8m_enabled
1073922344 00000021 T rtc_clk_8md256_enabled
1073923432 00000042 T rtc_clk_apb_freq_get
1073923012 00000025 T rtc_clk_apb_freq_update
1073922564 00000280 T rtc_clk_bbpll_configure
1073924560 00000198 T rtc_clk_cal
1073923916 00000643 T rtc_clk_cal_internal
1073922844 00000166 T rtc_clk_cpu_freq_get_config
1073923476 00000077 T rtc_clk_cpu_freq_mhz_to_config
1073923156 00000208 T rtc_clk_cpu_freq_set_config
1073923364 00000050 T rtc_clk_cpu_freq_set_config_fast
1073923416 00000015 T rtc_clk_cpu_freq_set_xtal
1073921788 00000167 t rtc_clk_cpu_freq_to_pll_mhz
1073923040 00000114 T rtc_clk_cpu_freq_to_xtal
1073922520 00000044 T rtc_clk_fast_freq_set
1073922464 00000016 T rtc_clk_slow_freq_get
1073922480 00000038 T rtc_clk_slow_freq_get_hz
1073922368 00000096 T rtc_clk_slow_freq_set
1073923556 00000007 T rtc_clk_xtal_freq_get
1073807192 A rtc_get_reset_reason
1073923556 00000007 T rtc_get_xtal
1074443920 00000141 T rtc_gpio_deinit
1074443752 00000165 T rtc_gpio_init
1074443720 00000032 t rtc_gpio_is_valid_gpio
1074440456 00000032 t rtc_gpio_is_valid_gpio
1074444280 00000121 T rtc_gpio_pulldown_dis
1074444156 00000121 T rtc_gpio_pullup_dis
1074444064 00000089 T rtc_gpio_set_direction
1074444404 00000165 T rtc_gpio_wakeup_enable
1075011404 00001420 T rtc_init
1057020780 00001232 D rtc_io_desc
1057022012 00000188 D rtc_io_num_map
1073923564 00000351 T rtc_sleep_pd
1073496168 00000008 D rtc_spinlock
1073924792 00000040 T rtc_time_get
1073924760 00000031 T rtc_time_us_to_slowclk
1073496300 00000008 d rtc_wdt_ctx
1061191680 A RTCCNTL
1061192704 A RTCIO
1074478516 00000335 T rtcio_hal_set_direction
1074478472 00000041 t rtcio_ll_input_disable
1074478436 00000036 t rtcio_ll_input_enable
1073914552 00000273 T rx_11b_opt
1074799880 00000027 T rx11NRate2AMPDULimit
1074832736 00000200 T rxdc_est_min
1073515200 00000016 b s_adc_cali_param
1073519560 00000008 b s_adjtime_start_us
1073519552 00000008 b s_adjtime_total_correction_us
1073518444 00000004 b s_alarm_handler
1073515252 00000008 b s_app_elf_sha256$3830
1073519568 00000004 b s_boot_time_lock
1073519632 00000004 b s_burn_counter
1073521744 00000008 b s_checksum_context
1073519220 00000084 b s_common_mutex
1073519136 00000084 b s_common_recursive_mutex
1074981804 00000012 t s_compare_reserved_regions
1073496524 00000072 d s_context
1073520848 00000016 b s_core_flash_config
1073519660 00001124 b s_coredump_stack
1073518432 00000008 b s_correction_us
1073518396 00000004 b s_crypto_dma_lock
1073518392 00000004 b s_crypto_mpi_lock
1056999300 00000008 d s_ctx
1073496688 00000004 d s_cur_pll_freq
1073515996 00000004 b s_default_loop
1073496640 00000004 d s_dhcps_mask
1073507712 00000012 d s_dma_descr_buf
1073507724 00000012 d s_dma_descr_input
1073515824 00000001 b s_dumping_core$7971
1073531696 00000004 B s_eapol_txdone_cb
1073515976 00000004 b s_esp_netif_counter
1073515956 00000016 b s_esp_netifs
1073496664 00000008 d s_esp_rtc_time_lock
1342177296 00000008 b s_esp_rtc_time_us
1073519636 00000004 b s_exc_frame
1073521592 00000148 b s_extra_info
1073499564 00000100 d s_fake_stack_frame
1073521740 00000004 b s_fake_stacks_num
1073496324 00000192 d s_fd_table
1073515892 00000004 b s_fd_table_lock
1073536416 00000008 B s_fix_rate
1073523104 00000004 B s_fix_rate_mask
1073515672 00000004 b s_flash_guard_ops
1073515272 00000008 b s_flash_op_cache_state
1073522800 00000008 B s_fragment
1073515980 00000004 B s_head
1073522584 00000001 B s_is_6m
1073521762 00000001 b s_is_phy_calibrated
1073521761 00000001 b s_is_phy_reg_stored
1073515712 00000004 B s_keys
1073496272 00000008 d s_keys_lock
1073515992 00000004 b s_last_default_esp_netif
1073524028 00000032 b s_ledc_fade_rec
1073515972 00000004 b s_list_lock
1073518100 00000248 b s_log_cache
1073518092 00000004 b s_log_cache_entry_count
1073518096 00000004 b s_log_cache_max_generation
1073518088 00000004 b s_log_cache_misses
1075014244 00000239 t s_log_level_get_and_unlock
1073518356 00000004 b s_log_mutex
1073496644 00000004 d s_log_print_func
1073518348 00000004 b s_log_tags
1073519576 00000008 B s_microseconds_offset
1073515668 00000004 b s_mmap_entries_head
1073515280 00000004 b s_mmap_last_handle
1073515284 00000384 b s_mmap_page_refcnt
1056999344 00000016 d s_netif_keyif
1073522404 00000004 B s_netstack_free
1073522396 00000004 B s_netstack_ref
1073515828 00000004 b s_panic_abort_details
1073496296 00000004 d s_panic_uart
1073515268 00000004 b s_partition_list
1073515264 00000004 b s_partition_list_lock
1073521764 00000004 b s_phy_access_lock
1073521760 00000001 b s_phy_access_ref
1073521756 00000004 b s_phy_digital_regs_mem
1073507640 00000008 d s_phy_int_mux
1073521752 00000001 b s_phy_modem_init_ref
1073496316 00000008 d s_previous_init_code
1073519600 00000016 b s_priv_data
1073496692 00000001 d s_psram_cs_io
1073518412 00000004 b s_psram_id
1073515704 00000004 b s_pthread_cfg_key
1073496696 00000004 d s_record_max
1073496700 00000004 d s_record_min
1073519304 00000240 b s_reent
1073521004 00000588 b s_reg_dump$5889
1073496516 00000008 d s_registered_select_lock
1073515944 00000004 b s_registered_select_num
1073515948 00000004 b s_registered_selects
1073515756 00000004 b s_reset_reason
1073524064 00000016 b s_rmt_source_clock_hz
1342177288 00000008 b s_rtc_last_ticks
1073524112 00000001 b s_sc_ack_send
1074494352 00000050 t s_set_default_wifi_log_level
1073521884 00000064 b s_sm_table
1073521880 00000004 b s_sm_valid_bitmap
1073519640 00000020 b s_stack_context
1073507672 00000016 d s_stream_in
1073507700 00000012 d s_stream_in_desc
1073507656 00000016 d s_stream_out
1073507688 00000012 d s_stream_out_desc
1073499368 00000144 d s_stub_table
1073515952 00000001 b s_tcpip_adapter_compat
1073518416 00000004 b s_temperature_sensor_power_cnt
1073515708 00000004 b s_threads_mux
1073519544 00000004 b s_time_lock
1073497240 00000008 D s_time_update_lock
1073518448 00000004 b s_timer_interrupt_handle
1073497216 00000008 d s_timer_lock
1073518420 00000004 b s_timer_task
1073518424 00000004 b s_timers
1073496693 00000001 d s_tsens_idx
1073531404 00000008 B s_tx_cacheq
1073515148 00000004 b s_uart_debug_nr
1073515900 00000032 b s_vfs
1073515896 00000004 b s_vfs_count
1073522012 00000004 B s_wifi_api_lock
1073507648 00000008 d s_wifi_bt_pd_controller
1057001224 00000008 d s_wifi_netif_config_ap
1057001216 00000008 d s_wifi_netif_config_sta
1073516004 00000008 b s_wifi_netifs
1073516012 00000008 b s_wifi_netifs
1073530224 00001180 B s_wifi_nvs
1073522808 00000004 B s_wifi_queue
1073516020 00000008 b s_wifi_rxcbs
1073522204 00000004 B s_wifi_task_hdl
1073524116 00000004 b s_wifi_thread_sem_key$10453
1073524120 00000001 b s_wifi_thread_sem_key_init$10452
1073515716 00000001 b s_wifi_tsens_xpd_flag
1073521956 00000004 b s_wifi_wpa2_sync_sem
1073521960 00000004 b s_wpa2_api_lock
1073521976 00000004 b s_wpa2_data_lock
1073521964 00000004 b s_wpa2_queue
1073521948 00000008 b s_wpa2_rxq
1073499684 00000004 d s_wpa2_state
1073521968 00000004 b s_wpa2_task_hdl
1074637808 00000150 T sae_check_confirm
1074633056 00000042 T sae_clear_data
1074632928 00000126 T sae_clear_temp_data
1074628652 00000188 t sae_cn_confirm$isra$4
1074628984 00000142 t sae_cn_confirm_ecc
1074628840 00000144 t sae_cn_confirm_ffc
1074634512 00000045 T sae_deinit_pt
1074632580 00000304 t sae_derive_commit
1074634560 00000627 T sae_derive_pt
1074633272 00000490 t sae_derive_pt_ffc$isra$18
1074631468 00000907 t sae_derive_pwe_ecc
1074630820 00000648 t sae_derive_pwe_ffc
1074633764 00000362 T sae_derive_pwe_from_pt_ecc
1074634128 00000382 T sae_derive_pwe_from_pt_ffc
1074982944 00000021 T sae_ecc_prime_len_2_hash_len
1074982968 00000025 T sae_ffc_prime_len_2_hash_len
1074632376 00000203 t sae_get_rand$isra$11
1074636604 00000075 T sae_group_allowed
1074636680 00000980 T sae_parse_commit
1074635188 00000090 T sae_prepare_commit
1074635280 00000258 T sae_prepare_commit_pt
1074635540 00000743 T sae_process_commit
1074630752 00000065 t sae_pwd_seed_key
1074633100 00000171 T sae_set_group
1074636284 00000319 T sae_write_commit
1074637660 00000146 T sae_write_confirm
1073523354 00000002 B sar_dc_code
1073523356 00000004 B sar_delay_us
1074981872 00000005 T sar_periph_ctrl_adc_oneshot_power_acquire
1074981880 00000005 T sar_periph_ctrl_adc_oneshot_power_release
1074581476 00000040 T sar_periph_ctrl_init
1073523352 00000002 B sar_ref_code
1074893908 00000674 t sc_ack_send_task
1073503080 00000004 D SC_EVENT
1074898004 00000045 T sc_free_sniffer_glob
1074818784 00000040 T sc_printf
1074894584 00000177 T sc_send_ack_start
1074894764 00000013 T sc_send_ack_stop
1074898920 00000028 T sc_set_mask_status
1074744032 00000031 T scan_add_bssid
1074744140 00000092 T scan_add_probe_ssid
1074745064 00000125 T scan_build_chan_list
1074743920 00000112 T scan_cancel
1074985088 00000038 T scan_check_hidden
1074747920 00000032 T scan_enter_oper_channel_process
1074985128 00000040 T scan_fill_wps_scan_ie
1074743824 00000092 T scan_flush_all_tx_buf
1074743688 00000128 T scan_freq_cal
1074743664 00000011 T scan_get_apnum
1074748848 00000059 T scan_get_scan_id
1074745208 00000012 T scan_get_type
1074744080 00000013 T scan_hidden_ssid
1073526256 00000048 B scan_info
1074747960 00000104 T scan_inter_channel_timeout_process
1074749092 00001948 T scan_parse_beacon
1074748916 00000104 T scan_parse_ht2040_coex
1074744300 00000404 T scan_prefer_chan
1074746168 00000708 T scan_profile_check
1074744064 00000015 T scan_remove_bssid
1074744232 00000039 T scan_remove_probe_ssid
1074746100 00000041 T scan_reset_cipher_and_akm
1074744096 00000014 T scan_set_act_duration
1074745192 00000015 T scan_set_desChan
1074744124 00000016 T scan_set_home_chan_dwell_time
1074744112 00000012 T scan_set_pas_duration
1074748784 00000060 T scan_set_scan_id
1074748460 00000279 T scan_start
1074744720 00000334 T scan_update_scan_history
1073522416 00000002 B scannum
1074848076 00000918 t search_object
1057048292 00000004 d secp192k1_a
1057048288 00000004 d secp192k1_b
1057048264 00000024 d secp192k1_gx
1057048240 00000024 d secp192k1_gy
1057048216 00000024 d secp192k1_n
1057048296 00000024 d secp192k1_p
1057049276 00000024 d secp192r1_b
1057049252 00000024 d secp192r1_gx
1057049228 00000024 d secp192r1_gy
1057049204 00000024 d secp192r1_n
1057049300 00000024 d secp192r1_p
1057048184 00000004 d secp224k1_a
1057048180 00000004 d secp224k1_b
1057048152 00000028 d secp224k1_gx
1057048124 00000028 d secp224k1_gy
1057048092 00000032 d secp224k1_n
1057048188 00000028 d secp224k1_p
1057049144 00000028 d secp224r1_b
1057049116 00000028 d secp224r1_gx
1057049088 00000028 d secp224r1_gy
1057049060 00000028 d secp224r1_n
1057049172 00000032 d secp224r1_p
1057048056 00000004 d secp256k1_a
1057048052 00000004 d secp256k1_b
1057048020 00000032 d secp256k1_gx
1057047988 00000032 d secp256k1_gy
1057047956 00000032 d secp256k1_n
1057048060 00000032 d secp256k1_p
1057048996 00000032 d secp256r1_b
1057048964 00000032 d secp256r1_gx
1057048932 00000032 d secp256r1_gy
1057048900 00000032 d secp256r1_n
1057049028 00000032 d secp256r1_p
1057048804 00000048 d secp384r1_b
1057048756 00000048 d secp384r1_gx
1057048708 00000048 d secp384r1_gy
1057048660 00000048 d secp384r1_n
1057048852 00000048 d secp384r1_p
1057048524 00000068 d secp521r1_b
1057048456 00000068 d secp521r1_gx
1057048388 00000068 d secp521r1_gy
1057048320 00000068 d secp521r1_n
1057048592 00000068 d secp521r1_p
1074484456 00000071 T seekdir
1073523440 00000004 b seen_objects
1073516032 00000004 b select_cb_ctr
1073516028 00000004 b select_cb_list
1074486092 00000173 t select_notif_callback_isr
1074474836 00000081 t select_rtc_slow_clk
1073830792 A SelectSpiQIO
1073520916 00000088 b self$7180
1074586896 00000016 t sem_give$isra$3
1074586876 00000017 t sem_take$isra$2
1074895088 00000017 t semphr_create_wrapper
1074894796 00000014 t semphr_delete_wrapper
1074895012 00000021 t semphr_give_wrapper
1074895372 00000017 t semphr_take_wrapper
1074774916 00000132 T send_ap_probe
1061193728 A SENS
1074571552 00000100 t sent_tcp
1073517468 00000004 b seqno
1073514280 00000080 B Serial
1073514200 00000080 B Serial1
1073517976 00000004 b server_address
1074647148 00000042 T set_assoc_ie
1074821804 00000287 T set_chan_freq_hw_init
1074822288 00000362 T set_chan_freq_sw_start
1073914384 00000118 T set_chan_reg
1074826380 00000036 T set_chanfreq
1074822660 00000060 T set_channel_rfpll_freq
1074895196 00000018 t set_intr_wrapper
1074895180 00000014 t set_isr_wrapper
1073536900 00000001 B set_most_tpw
1073914932 00000038 T set_pbus_reg
1073914248 00000121 T set_rx_comp
1074824456 00000652 T set_rx_gain_cal_dc
1074823732 00000713 T set_rx_gain_cal_iq
1074825620 00000402 T set_rx_gain_param
1074826048 00000329 T set_rx_gain_table
1074826472 00000440 T set_rx_sense
1073911496 00000169 T set_tx_gain_mem
1074440200 00000215 T setCpuFrequencyMhz
1073743168 A setjmp
1073749060 00000020 A setlocale
1074583600 00000014 T settimeofday
1074583492 00000107 t settimeofday$part$1
1074569756 00000050 t setup_tcp
1074905888 00000435 T setvbuf
1074818880 00000066 T sha_hal_hash_block
1074818948 00000043 T sha_hal_hash_dma
1074818992 00000052 T sha_hal_read_digest
1074819084 00000050 T sha_hal_sha512_init_hash
1074818864 00000016 T sha_hal_wait_idle
1074819044 00000038 T sha_hal_write_digest
1057049964 00000064 d sha1_padding
1074616836 00000195 T sha1_prf
1074619104 00000020 T sha1_vector
1057050028 00000064 d sha256_padding
1074616804 00000032 T sha256_prf
1074616544 00000259 T sha256_prf_bits
1057050092 00000128 d sha512_padding
1073902488 00000061 t shared_intr_isr
1073515720 00000020 b shutdown_handlers
1074946276 00000104 T siscanf
1074846796 00000054 t size_of_encoded_value
1074583660 00000016 T sleep
1074622380 00000085 t sm_WPA_PTK_AUTHENTICATION2_Enter$constprop$24
1074622344 00000034 t sm_WPA_PTK_DISCONNECT_Enter$constprop$29
1074624184 00000271 t sm_WPA_PTK_GROUP_REKEYNEGOTIATING_Enter$constprop$20
1074624852 00000087 t sm_WPA_PTK_INITIALIZE_Enter$constprop$23
1074622096 00000246 t sm_WPA_PTK_PTKCALCNEGOTIATING_Enter$constprop$27
1074624456 00000338 t sm_WPA_PTK_PTKINITNEGOTIATING_Enter$constprop$30
1074624000 00000182 t sm_WPA_PTK_PTKSTART_Enter$constprop$26
1073500548 00000024 D sms4
1073524144 00000032 B SnifGlob
1074946572 00000113 T sniprintf
1074906428 00000113 T snprintf
1073517992 00000096 b sntp_servers
1073517988 00000001 b sntp_set_servers_from_dhcp
1074573944 00000059 T sntp_setserver
1074575600 00000024 T soc_get_available_memory_region_max_count
1074575624 00000450 T soc_get_available_memory_regions
1057020008 00000004 D soc_memory_region_count
1057020012 00000352 D soc_memory_regions
1057020392 00000120 D soc_memory_types
1057155764 A soc_reserved_memory_region_end
1057155716 A soc_reserved_memory_region_start
1074497424 00000104 t sockaddr_to_ipaddr_port
1073516868 00000192 b socket_ipv4_multicast_memberships
1073516420 00000448 b socket_ipv6_multicast_memberships
1073516036 00000384 b sockets
1073503888 00000008 d spi_arg
1073830736 A spi_dummy_len_fix
1073838048 A SPI_Encrypt_Write
1073895132 00000016 T spi_flash_cache_enabled
1074460524 00000085 T spi_flash_cache2phys
1073896252 00000081 T spi_flash_check_and_flush_cache
1073950612 00000007 T spi_flash_chip_boya_get_caps
1073950580 00000031 T spi_flash_chip_boya_probe
1073950620 00000052 T spi_flash_chip_gd_detect_size
1073950788 00000023 T spi_flash_chip_gd_get_caps
1073950672 00000028 T spi_flash_chip_gd_get_io_mode
1073950700 00000031 T spi_flash_chip_gd_probe
1073950732 00000055 T spi_flash_chip_gd_set_io_mode
1073950880 00000262 T spi_flash_chip_generic_config_host_io_mode
1073950812 00000067 T spi_flash_chip_generic_detect_size
1073952664 00000109 T spi_flash_chip_generic_erase_block
1073952444 00000105 T spi_flash_chip_generic_erase_chip
1073952552 00000109 T spi_flash_chip_generic_erase_sector
1073953112 00000025 T spi_flash_chip_generic_get_caps
1073952320 00000028 T spi_flash_chip_generic_get_io_mode
1073952064 00000056 T spi_flash_chip_generic_get_write_protect
1073952776 00000101 T spi_flash_chip_generic_page_program
1073952436 00000007 T spi_flash_chip_generic_probe
1073951216 00000195 T spi_flash_chip_generic_read
1073952964 00000018 T spi_flash_chip_generic_read_reg
1073951672 00000137 T spi_flash_chip_generic_read_unique_id
1073953140 00000008 T spi_flash_chip_generic_read_unique_id_none
1073951812 00000085 T spi_flash_chip_generic_reset
1073952412 00000024 T spi_flash_chip_generic_set_io_mode
1073952880 00000082 T spi_flash_chip_generic_set_write_protect
1073952120 00000085 T spi_flash_chip_generic_suspend_cmd_conf
1073503896 00000020 D spi_flash_chip_generic_timeout
1073952984 00000128 T spi_flash_chip_generic_wait_idle
1073951412 00000186 T spi_flash_chip_generic_write
1073951900 00000163 T spi_flash_chip_generic_write_encrypted
1073951600 00000070 T spi_flash_chip_generic_yield
1073953368 00000007 T spi_flash_chip_issi_get_caps
1073953340 00000028 T spi_flash_chip_issi_get_io_mode
1073953288 00000031 T spi_flash_chip_issi_probe
1073953320 00000020 T spi_flash_chip_issi_set_io_mode
1073953404 00000007 T spi_flash_chip_mxic_get_caps
1073953376 00000028 T spi_flash_chip_mxic_probe
1073953444 00000007 T spi_flash_chip_th_get_caps
1073953412 00000031 T spi_flash_chip_th_probe
1073953900 00000139 T spi_flash_chip_winbond_erase_block
1073953764 00000135 T spi_flash_chip_winbond_erase_sector
1073954064 00000023 T spi_flash_chip_winbond_get_caps
1073953664 00000098 T spi_flash_chip_winbond_page_program
1073954040 00000024 T spi_flash_chip_winbond_probe
1073953452 00000211 T spi_flash_chip_winbond_read
1056998600 00000056 d spi_flash_clk_cfg_reg
1073952208 00000048 t spi_flash_common_read_qe_sr$constprop$5
1073952256 00000048 T spi_flash_common_read_status_16b_rdsr_rdsr2
1073952348 00000016 T spi_flash_common_read_status_8b_rdsr
1073952304 00000016 T spi_flash_common_read_status_8b_rdsr2
1073953148 00000138 T spi_flash_common_set_io_mode
1073951144 00000048 t spi_flash_common_write_qe_sr
1073951192 00000021 T spi_flash_common_write_status_16b_wrsr
1073952364 00000021 T spi_flash_common_write_status_8b_wrsr
1073952388 00000021 T spi_flash_common_write_status_8b_wrsr2
1073895008 00000013 T spi_flash_disable_cache
1073895024 00000024 T spi_flash_disable_interrupts_caches_and_other_cpu
1073895048 00000018 T spi_flash_disable_interrupts_caches_and_other_cpu_no_os
1073895240 00000015 T spi_flash_enable_cache
1073895084 00000026 T spi_flash_enable_interrupts_caches_and_other_cpu
1073895112 00000020 T spi_flash_enable_interrupts_caches_no_os
1073939920 00000017 T spi_flash_encryption_hal_check
1073939904 00000015 T spi_flash_encryption_hal_destroy
1073939792 00000023 T spi_flash_encryption_hal_disable
1073939868 00000034 T spi_flash_encryption_hal_done
1073939720 00000069 T spi_flash_encryption_hal_enable
1073939816 00000052 T spi_flash_encryption_hal_prepare
1056998544 00000056 d spi_flash_gpspi_clk_cfg_reg
1073896356 00000010 T spi_flash_guard_set
1073943680 00000041 T spi_flash_hal_check_status
1073942420 00000304 T spi_flash_hal_common_command
1073941812 00000608 T spi_flash_hal_configure_host_io_mode
1073943428 00000234 T spi_flash_hal_device_config
1073943344 00000083 T spi_flash_hal_disable_auto_suspend_mode
1073942992 00000087 T spi_flash_hal_erase_block
1073942856 00000038 T spi_flash_hal_erase_chip
1073942896 00000094 T spi_flash_hal_erase_sector
1073941636 00000025 T spi_flash_hal_gpspi_check_status
1073941024 00000405 T spi_flash_hal_gpspi_common_command
1073940344 00000677 T spi_flash_hal_gpspi_configure_host_io_mode
1073940028 00000315 T spi_flash_hal_gpspi_device_config
1073941604 00000015 T spi_flash_hal_gpspi_poll_cmd_done
1073941432 00000172 T spi_flash_hal_gpspi_read
1073941628 00000007 T spi_flash_hal_gpspi_supports_direct_read
1073941620 00000007 T spi_flash_hal_gpspi_supports_direct_write
1074480284 00000236 T spi_flash_hal_init
1073943664 00000015 T spi_flash_hal_poll_cmd_done
1073943080 00000116 T spi_flash_hal_program_page
1073942724 00000130 T spi_flash_hal_read
1073943724 00000024 T spi_flash_hal_resume
1073943196 00000044 T spi_flash_hal_set_write_protect
1073943260 00000083 T spi_flash_hal_setup_auto_suspend_mode
1073943240 00000019 T spi_flash_hal_setup_read_suspend
1074480556 00000017 T spi_flash_hal_supports_direct_read
1074480520 00000033 T spi_flash_hal_supports_direct_write
1073943748 00000024 T spi_flash_hal_suspend
1074460640 00000011 T spi_flash_init
1073921076 00000007 T spi_flash_init_chip_state
1074979708 00000005 T spi_flash_init_lock
1073895932 00000103 T spi_flash_mmap
1073896176 00000073 T spi_flash_mmap_get_free_pages
1073895256 00000096 t spi_flash_mmap_init
1073895512 00000420 T spi_flash_mmap_pages
1073896036 00000137 T spi_flash_munmap
1074460500 00000011 T spi_flash_op_lock
1074460512 00000011 T spi_flash_op_unlock
1073896336 00000020 t spi_flash_os_yield
1073895388 00000026 t spi_flash_protected_read_mmu_entry
1073898596 00000023 T spi_flash_read
1073896368 00000070 T spi_flash_read_encrypted
1073895068 00000014 T spi_flash_restore_cache
1073896504 00000114 t spi_flash_translate_rc
1073741116 A SPI_flashchip_data
1073833600 A SPI_Wait_Idle
1073898884 00000017 t spi1_end
1073898720 00000064 t spi1_flash_os_check_yield
1073898860 00000022 t spi1_flash_os_yield
1073898848 00000010 t spi1_start
1073836192 A SPIClkConfig
1073921128 00000024 t spiflash_end_default
1073921084 00000042 t spiflash_start_default
1073941728 00000084 t spimem_flash_ll_get_buffer_data
1073941664 00000062 t spimem_flash_ll_set_buffer_data
1061167104 A SPIMEM1
1074895108 00000040 t spin_lock_create_wrapper
1073496672 00000008 d spinlock
1073518408 00000001 b spiram_inited
1073518400 00000004 b spiram_map_size
1073518404 00000004 b spiram_size
1073515145 00000001 b spiramDetected
1073515144 00000001 b spiramFailed
1074906616 00000087 T sprintf
1073911688 00000201 T spur_coef_cfg
1074899404 00000094 T sqrt
1073773092 00000084 A srand
1074629168 00001582 t sswu
1074758388 00000033 T sta_action_output
1074755088 00000294 T sta_auth_open
1074759208 00000423 T sta_auth_sae
1074755392 00000314 T sta_auth_shared
1074758264 00000122 T sta_bip_check
1073535752 00000020 B sta_con_timer
1073522420 00000020 B sta_csa_timer
1074751044 00000082 T sta_eapol_txdone_cb
1074999200 00001258 T sta_input
1074759168 00000037 T sta_is_wpa3_enabled
1074755012 00000050 T sta_michael_mic_failure
1074756652 00001312 T sta_recv_assoc
1074757964 00000015 T sta_recv_ctl
1074759688 00002075 T sta_recv_mgmt
1074751320 00000034 T sta_recv_sa_query_req
1074751136 00000136 T sta_recv_sa_query_resp
1075003600 00000058 T sta_reset_beacon_timeout
1074756484 00000106 T sta_retry_assoc
1075000460 00000024 T sta_rx_cb
1074755956 00000488 T sta_rx_csa
1074754636 00000360 T sta_rx_eapol
1073522440 00000004 B sta_rxcb
1074758660 00000095 T sta_sa_query_process_timeout
1074758432 00000104 T sta_send_sa_query_req
1074758544 00000102 T sta_send_sa_query_resp
1074758776 00000326 T sta_try_sa_query_process
1073898952 00000023 t start
         U start_app
1074476796 00000290 W start_cpu0
1074476796 00000290 t start_cpu0_default
1074924268 00000020 T stat
1074985816 00000027 t state_length
1073502715 00000001 D stg0_init
1073502714 00000001 D stg0_set
1073502842 00000001 D stg0_tmp
1073502713 00000001 D stg1_init
1073502712 00000001 D stg1_set
1073773368 00000062 A strcasecmp
1073773436 A strcasestr
1073851792 00000035 A strcat
1073851824 00000029 A strchr
1073773540 00000259 A strcmp
1073773800 A strcoll
1073773820 00000135 A strcpy
1073851852 00000043 A strcspn
1073773956 00000021 A strdup
1074907236 00000022 T strerror
1074907260 00000022 T strerror_l
1074910316 00000024 T strftime
1074910340 00000020 T strftime_l
1073774008 00000082 A strlcat
1073851896 00000070 A strlcpy
1073774088 00000095 A strlen
1073774184 A strlwr
1073774228 A strncasecmp
1073851956 A strncat
1073852004 00000062 A strncmp
1073774368 00000198 A strncpy
1073774568 00000024 A strndup
1073852060 00000029 A strnlen
1073774656 00000045 A strrchr
1073774700 A strsep
1073852092 00000043 A strspn
1073852136 00000054 A strstr
1073852284 A strtok_r
1074910688 00000022 T strtol
1074910664 00000022 T strtol_l
1074947112 00000024 T strtoll
1074947088 00000024 T strtoll_l
1074911000 00000022 T strtoul
1074910976 00000022 T strtoul_l
1074947548 00000024 T strtoull
1074947524 00000024 T strtoull_l
1073774724 A strupr
1074984288 00000030 t sub32
1074983552 00000005 T supplicant_sta_conn_handler
1074983560 00000005 T supplicant_sta_disconn_handler
1057049368 00000028 d supported_digests
1073523344 00000001 B sw_scan_mode
1074564060 00000085 T sys_arch_mbox_fetch
1074564148 00000053 T sys_arch_mbox_tryfetch
1074564376 00000030 T sys_arch_protect
1074563828 00000070 T sys_arch_sem_wait
1074564408 00000011 T sys_arch_unprotect
1074529340 00000058 T sys_check_timeouts
1074564304 00000054 T sys_init
1074564204 00000062 T sys_mbox_free
1074563912 00000061 T sys_mbox_new
1074563976 00000044 T sys_mbox_post
1074564020 00000038 T sys_mbox_trypost
1074563648 00000018 T sys_mutex_free
1074563572 00000035 T sys_mutex_lock
1074563540 00000029 T sys_mutex_new
1074563608 00000040 T sys_mutex_unlock
1074564360 00000013 T sys_now
1074563900 00000010 T sys_sem_free
1074563668 00000086 T sys_sem_new
1074563756 00000040 T sys_sem_signal
1074563796 00000030 T sys_sem_signal_isr
1074564268 00000035 T sys_thread_new
1074563512 00000026 t sys_thread_sem_free
1074564528 00000022 T sys_thread_sem_get
1074564420 00000107 T sys_thread_sem_init
1073517928 00000004 b sys_thread_sem_key
1074564552 00000105 T sys_thread_tcpip
1074529120 00000043 T sys_timeout
1074528988 00000083 t sys_timeout_abs
1074529252 00000031 T sys_timeouts_init
1074529400 00000032 T sys_timeouts_sleeptime
1074529284 00000056 T sys_untimeout
1074981904 00000011 t syscall_not_implemented
1074583208 00000009 t syscall_not_implemented_aborts
1073741176 A syscall_table_ptr_pro
1061302272 A SYSTIMER
1073518440 00000004 b systimer_hal
1073944356 00000005 T systimer_hal_connect_alarm_counter
1073944316 00000030 T systimer_hal_enable_alarm_int
1073944348 00000005 T systimer_hal_enable_counter
1073943836 00000057 T systimer_hal_get_counter_value
1073943772 00000064 T systimer_hal_init
1073944260 00000055 T systimer_hal_on_apb_freq_update
1073944128 00000061 T systimer_hal_select_alarm_mode
1073943896 00000230 T systimer_hal_set_alarm_target
1073944192 00000067 T systimer_hal_set_steps_per_tick
1073523808 00000004 b t0h_ticks
1073523800 00000004 b t0l_ticks
1073523804 00000004 b t1h_ticks
1073523796 00000004 b t1l_ticks
1056993943 00000010 d TAG
1073507528 00000019 d TAG
1073505009 00000020 d TAG
1073511442 00000007 d TAG
1073507411 00000018 d TAG
1073504188 00000021 d TAG
1073507616 00000023 d TAG
1056994053 00000010 d TAG
1073512260 00000013 d TAG
1073512800 00000008 d TAG
1074894924 00000037 t task_create_pinned_to_core_wrapper
1074894892 00000030 t task_create_wrapper
1074988444 00000007 t task_get_max_priority_wrapper
1073921188 00000005 t task_ms_to_tick_wrapper
1074473760 00000361 t task_wdt_isr
1073920996 00000010 t task_yield_from_isr_wrapper
1073933144 00000034 T taskYIELD_OTHER_CORE
1074513908 00000216 T tcp_abandon
1074514124 00000015 T tcp_abort
1074981316 00000015 T tcp_accept
1074514140 00000036 t tcp_accept_null
1073524380 00000004 B tcp_active_pcbs
1073524376 00000001 B tcp_active_pcbs_changed
1074514744 00000295 T tcp_alloc
1074981304 00000010 T tcp_arg
1074511324 00000068 T tcp_backlog_accepted
1057007687 00000013 d tcp_backoff
1074511516 00000456 T tcp_bind
1074981280 00000021 T tcp_bind_netif
1073524384 00000004 B tcp_bound_pcbs
1074515412 00000036 T tcp_close
1074515068 00000344 t tcp_close_shutdown
1074511392 00000122 t tcp_close_shutdown_fin
1074512956 00000678 T tcp_connect
1074524156 00000250 t tcp_create_segment
1074570228 00000015 t tcp_do_abort
1074512856 00000098 T tcp_eff_send_mss_netif
1074526156 00000266 T tcp_enqueue_flags
1074512736 00000034 T tcp_err
1074515628 00000129 T tcp_fasttmr
1074511284 00000038 T tcp_free
1074517364 00000187 t tcp_free_acked_segments$isra$2
1074513636 00000018 T tcp_free_ooseq
1074516876 00000058 t tcp_get_next_optbyte
1074511260 00000023 T tcp_init
1074520400 00003733 T tcp_input
1074517288 00000074 t tcp_input_delayed_close
1073524400 00000004 B tcp_input_pcb
1074528632 00000072 T tcp_keepalive
1074514228 00000085 t tcp_kill_prio
1074514688 00000053 t tcp_kill_state
1074514176 00000050 t tcp_kill_timewait
1073524396 00000004 B tcp_listen_pcbs
1074512344 00000020 T tcp_listen_with_backlog
1074511972 00000370 T tcp_listen_with_backlog_and_err
1074514436 00000252 T tcp_netif_ip_addr_changed
1074514316 00000119 t tcp_netif_ip_addr_changed_pcblist
1074515040 00000026 T tcp_new_ip_type
1074510988 00000077 t tcp_new_port
1074512812 00000044 T tcp_next_iss
1074516936 00000215 t tcp_oos_insert_segment
1073517472 00000002 b tcp_optidx
1074527228 00001309 T tcp_output
1074524852 00000068 t tcp_output_alloc_header$constprop$5
1074524408 00000220 t tcp_output_alloc_header_common
1074524676 00000131 t tcp_output_control_segment
1074524920 00000026 t tcp_output_fill_options$constprop$6
1074524808 00000042 t tcp_output_segment_busy
1074517152 00000136 t tcp_parseopt
1057007664 00000016 D tcp_pcb_lists
1074511068 00000190 t tcp_pcb_num_cal$part$4
1074513656 00000078 T tcp_pcb_purge
1074513736 00000171 T tcp_pcb_remove
1057007680 00000007 d tcp_persist_backoff
1074512772 00000040 T tcp_poll
1073496620 00000002 d tcp_port
1074515496 00000129 T tcp_process_refused_data
1074517552 00002846 t tcp_receive
1074512664 00000034 T tcp_recv
1074515448 00000047 T tcp_recv_null
1074512472 00000091 T tcp_recved
1074526740 00000179 T tcp_rexmit
1074526920 00000104 T tcp_rexmit_fast
1074528588 00000043 T tcp_rexmit_rto
1074528540 00000045 T tcp_rexmit_rto_commit
1074526560 00000178 T tcp_rexmit_rto_prepare
1074524628 00000046 t tcp_route
1074527024 00000094 T tcp_rst
1074512608 00000054 T tcp_seg_copy
1074512564 00000024 T tcp_seg_free
1074512588 00000017 T tcp_segs_free
1074527120 00000108 T tcp_send_empty_ack
1074526424 00000133 T tcp_send_fin
1074512700 00000034 T tcp_sent
1074515760 00000081 T tcp_shutdown
1074515844 00001004 T tcp_slowtmr
1074525728 00000428 T tcp_split_unsent_seg
1073524388 00000004 B tcp_ticks
1073517449 00000001 b tcp_timer
1073517448 00000001 b tcp_timer_ctr
1074529164 00000044 T tcp_timer_needed
1074516848 00000028 T tcp_tmr
1074524136 00000019 T tcp_trigger_input_pcb_close
1073524392 00000004 B tcp_tw_pcbs
1074512364 00000107 T tcp_update_rcv_ann_wnd
1074524948 00000778 T tcp_write
1074528704 00000281 T tcp_zero_window_probe
1073517484 00000004 b tcphdr
1073517480 00000002 b tcphdr_opt1len
1073517476 00000004 b tcphdr_opt2
1073517482 00000002 b tcphdr_optlen
1074488660 00000021 T tcpip_adapter_clear_default_wifi_handlers
1074488684 00000026 T tcpip_adapter_get_netif
1074488596 00000062 T tcpip_adapter_set_default_wifi_handlers
1074504732 00000061 T tcpip_api_call
1074504520 00000062 T tcpip_callback
1074504796 00000072 T tcpip_init
1074489524 00000010 t tcpip_init_done
1073517072 00000004 b tcpip_init_done
1073517068 00000004 b tcpip_init_done_arg
1074504408 00000080 T tcpip_inpkt
1074504488 00000029 T tcpip_input
1073517064 00000004 b tcpip_mbox
1074504660 00000072 T tcpip_send_msg_wait_sem
1074529208 00000044 t tcpip_tcp_timer
1073517504 00000004 b tcpip_tcp_timer_active
1074504208 00000199 t tcpip_thread
1074504584 00000076 T tcpip_try_callback
1073517458 00000002 b tcplen
1074581792 00000194 T temp_sensor_get_raw_value
1074581316 00000158 t temperature_sensor_get_raw_value
1074581516 00000119 T temperature_sensor_power_acquire
1074581636 00000154 T temperature_sensor_power_release
1057055904 00000008 d terminator$7037
1074838220 00000238 T test_rx_gain_cal
1074437424 00000010 W testSPIRAM
1073522412 00000002 B TestStaFreqCalValInput
1073515760 00000032 b tick_cb
1073907560 00000050 t tick_hook
1074924312 00000038 T time
1073904916 00000034 t timer_alarm_handler
1073905384 00000038 t timer_alarm_isr
1073920888 00000018 t timer_arm_us_wrapper
1073920920 00000018 t timer_arm_wrapper
1074892292 00000269 T timer_deinit
1074892796 00000229 T timer_disable_intr
1073920908 00000010 t timer_disarm_wrapper
1074894880 00000010 t timer_done_wrapper
1074892564 00000229 T timer_enable_intr
1057060652 00000016 D timer_group_periph_signals
1074987952 00000026 T timer_hal_get_status_reg_mask_bit
1074893232 00000018 T timer_hal_init
1074893252 00000096 T timer_hal_reset_periph
1074891748 00000541 T timer_init
1073904788 00000106 t timer_insert
1074893028 00000204 T timer_isr_callback_add
1073920512 00000197 t timer_isr_default
1074891552 00000195 T timer_isr_register
1073904764 00000023 t timer_list_lock
1073904896 00000019 t timer_list_unlock
1074890540 00000137 t timer_ll_set_divider
1074891348 00000201 T timer_set_alarm_value
1074891100 00000246 T timer_set_auto_reload
1074890680 00000206 T timer_set_counter_value
1074894864 00000014 t timer_setfn_wrapper
1073503064 00000016 d timer_spinlock
1074890888 00000209 T timer_start
1074582124 00000285 t timer_task
1061285888 A TIMERG0
1061289984 A TIMERG1
1073497224 00000016 d timestamp_id$5555
1073500572 00000024 D tkip
1074782036 00000153 T tkip_decap
1074782196 00000130 T tkip_encap
1074651544 00000014 T tls_deinit
1073526584 00000004 B tls_instance_count
1075013152 00000291 T tlsf_add_pool
1073945700 00000007 T tlsf_alloc_overhead
1073945708 00000022 T tlsf_block_size
1073945732 00000024 T tlsf_block_size_max
1075013444 00000341 T tlsf_create
1075013788 00000035 T tlsf_create_with_pool
1075013108 00000041 T tlsf_fit_size
1073945756 00000744 T tlsf_free
1073946500 00000013 T tlsf_get_pool
1073946516 00000746 T tlsf_malloc
1073947264 00000917 T tlsf_realloc
1073948184 00000010 T tlsf_size
1075013052 00000054 T tlsf_walk_pool
1073499740 00000001 D TmpSTAAPCloseAP
1073852304 A toascii
1073774936 00000022 A tolower
1074898888 00000027 T TOUCH_Free_glob
1074898816 00000067 T TOUCH_Free_guide_glob
1057022200 00000060 D touch_sensor_channel_io_map
1074898960 00000066 T TOUCH_v2_free_glob
1073537128 00000020 B TouchRestart_ht20_timer
1073537108 00000020 B TouchRestart_ht40_timer
1073537148 00000020 B TouchUdpTimer
1073774964 00000022 A toupper
1074482536 00000059 t translate_path
1074802224 00000110 T TRC_AMPDU_PER_DOWN_THRESHOLD
1074802492 00000089 T TRC_AMPDU_PER_UP_THRESHOLD
1074985584 00000017 T trc_calc_duration
1073502624 00000028 D trc_ctl
1074803816 00000037 T trc_deinit
1074803560 00000148 T trc_init
1074997992 00000018 T trc_isTxAmpduOperational
1074801364 00000188 T trc_onAmpduOp
1074803252 00000125 T trc_onPPTxDone
1074802140 00000077 T TRC_PER_IS_GOOD
1074998012 00000023 T trc_tid_isTxAmpduOperational
1074803712 00000103 T trc_update_ifx_phy_mode
1074985604 00000029 T trcAmpduSetState
1074440100 00000097 t triggerApbChangeCallback
1074498216 00000026 t tryget_socket
1074496284 00000101 t tryget_socket_unconn
1074496388 00000118 t tryget_socket_unconn_locked
1074820232 00000089 T tsens_read_init
1074820328 00000016 T tsens_temp_read
1075003112 00000158 T tsf_hal_get_counter_value
1075003272 00000031 T tsf_hal_get_time
1073515744 00000004 b twdt_config
1073515748 00000008 b twdt_context
1073496280 00000008 d twdt_spinlock
1074835796 00000206 T tx_cap_init
1073523322 00000001 B tx_fbw_enable
1074836836 00000200 T tx_ict_stg0_cal
1073917152 00000042 T tx_pwctrl_background
1073916940 00000026 T tx_pwctrl_bg_init
1074837044 00000119 T tx_pwctrl_init
1074836648 00000181 T tx_pwctrl_init_cal
1073502836 00000004 D tx_rf_ana_gain
1074831144 00000081 T txcal_debuge_mode
1074827000 00000086 T txiq_cal_init
1074838080 00000122 T txpwr_offset
1073500924 00000960 D TxRxCxt
1073503592 00000064 d tzinfo
1074924764 00000021 T tzset
1074487640 00000080 t uart_access
1074446928 00000099 t uart_check_buf_full
1074487924 00000028 t uart_close
1073496184 00000032 d uart_context
1074447860 00000118 T uart_disable_intr_mask
1074448152 00000018 T uart_disable_rx_intr
1074448172 00000017 T uart_disable_tx_intr
1074451596 00000213 T uart_driver_delete
1074451812 00000596 T uart_driver_install
1074448192 00000189 T uart_enable_tx_intr
1074444852 00000118 t uart_enable_tx_write_fifo
1074485556 00000141 t uart_end_select
1074487784 00000091 t uart_fcntl
1074451128 00000467 T uart_flush
1074451128 00000467 T uart_flush_input
1074446700 00000106 t uart_free_driver_obj
1074487876 00000045 t uart_fstat
1074487976 00000064 t uart_fsync
1074447684 00000087 T uart_get_baudrate
1074450876 00000124 T uart_get_buffered_data_len
1074447508 00000087 T uart_get_parity
1074452460 00000008 T uart_get_selectlock
1074447332 00000085 T uart_get_stop_bits
1074451000 00000128 T uart_get_tx_buffer_free_size
1074447148 00000063 T uart_get_word_length
1074479152 00000065 T uart_hal_get_baudrate
1074980608 00000017 T uart_hal_get_data_bit_num
1074479968 00000023 T uart_hal_get_max_rx_timeout_thrd
1074980684 00000032 T uart_hal_get_parity
1074980556 00000017 T uart_hal_get_stop_bits
1074980748 00000070 T uart_hal_get_symb_len
1074479616 00000262 T uart_hal_init
1074479388 00000227 T uart_hal_inverse_signal
1074480228 00000056 T uart_hal_read_rxfifo
1074480032 00000039 T uart_hal_rxfifo_rst
1074479072 00000078 T uart_hal_set_baudrate
1074980576 00000031 T uart_hal_set_data_bit_num
1074479220 00000097 T uart_hal_set_hw_flow_ctrl
1074980628 00000054 T uart_hal_set_parity
1074479880 00000086 T uart_hal_set_rx_timeout
1074980716 00000029 T uart_hal_set_rxfifo_full_thr
1074479032 00000038 T uart_hal_set_sclk
1074980524 00000032 T uart_hal_set_stop_bits
1074479320 00000034 T uart_hal_set_tx_idle_num
1074479356 00000032 T uart_hal_set_txfifo_empty_thr
1074480072 00000086 T uart_hal_tx_break
1074479992 00000039 T uart_hal_txfifo_rst
1074480160 00000068 T uart_hal_write_txfifo
1074439076 00000029 T uart_install_putc
1074449784 00000186 T uart_intr_config
1074452408 00000027 T uart_is_driver_installed
1074448764 00000098 T uart_isr_register
1074444776 00000074 t uart_module_enable
1074487720 00000063 t uart_open
1074449492 00000290 T uart_param_config
1074444572 00000054 t uart_pattern_enqueue
1074447980 00000171 T uart_pattern_queue_reset
1074444628 00000062 t uart_pattern_queue_update
1057022260 00000048 D uart_periph_signal
1074488144 00000170 t uart_read
1074450536 00000339 T uart_read_bytes
1074485520 00000036 t uart_read_char
1074446808 00000118 t uart_reenable_intr_mask$constprop$8
1074487952 00000021 t uart_return_char$part$7
1074485468 00000050 t uart_rx_char
1074444972 00001727 t uart_rx_intr_handler_default
1073818608 A uart_rx_one_char
1073496176 00000008 d uart_selectlock
1074447596 00000087 T uart_set_baudrate
1074447772 00000087 T uart_set_line_inverse
1074447420 00000087 T uart_set_parity
1074448864 00000627 T uart_set_pin
1074452468 00000173 T uart_set_rx_full_threshold
1074452644 00000131 T uart_set_rx_timeout
1074452436 00000023 T uart_set_select_notif_callback
1074447212 00000119 T uart_set_stop_bits
1074447028 00000119 T uart_set_word_length
1074485700 00000390 t uart_start_select
1074488316 00000042 t uart_tcdrain
1074487596 00000043 t uart_tcflush
1074486268 00000694 t uart_tcgetattr
1074486964 00000630 t uart_tcsetattr
1074444692 00000083 t uart_try_set_iomux_pin
1074448384 00000379 t uart_tx_all$part$5
1074485412 00000056 t uart_tx_char
1073818384 A uart_tx_one_char
1073818476 A uart_tx_wait_idle
1074449972 00000426 T uart_wait_tx_done
1074488040 00000104 t uart_write
1074450400 00000133 T uart_write_bytes
1061158912 A UART0
1074437548 00000030 t uart0_write_char
1061224448 A UART1
1074437580 00000039 t uart1_write_char
1074438104 00000062 T uartAvailable
1074438168 00000082 T uartAvailableForWrite
1074439148 00000115 T uartBaudrateDetect
1074438732 00000343 T uartBegin
1074437620 00000264 T uartDetachPins
1074439336 00000132 T uartDetectBaudrate
1074438056 00000046 T uartEnd
1074438716 00000015 T uartFlush
1074438612 00000104 T uartFlushTxOnly
1074439136 00000010 T uartGetDebug
1074979516 00000016 T uartGetEventQueue
1074437916 00000018 T uartIsDriverInstalled
1074438388 00000097 T uartPeek
1074438252 00000133 T uartReadBytes
1074439108 00000027 T uartSetDebug
1074437996 00000060 T uartSetRxFIFOFull
1074437936 00000060 T uartSetRxTimeout
1074439264 00000070 T uartStartDetectBaudrate
1073515146 00000001 b uartStateDetectingBaudrate$9267
1074438488 00000052 T uartWrite
1074438540 00000072 T uartWriteBuf
1057034295 00000020 d ucExpectedStackBytes$5667
1074530404 00000481 T udp_bind
1074981332 00000021 T udp_bind_netif
1074531860 00000243 T udp_connect
1074532104 00000114 T udp_disconnect
1074529648 00000023 T udp_init
1074529672 00000732 T udp_input
1074529432 00000214 t udp_input_local_match
1074532328 00000232 T udp_netif_ip_addr_changed
1074532272 00000032 T udp_new
1074532304 00000021 T udp_new_ip_type
1073524404 00000004 B udp_pcbs
1073496622 00000002 d udp_port
1074981356 00000014 T udp_recv
1074532220 00000050 T udp_remove
1074531800 00000058 T udp_send
1074531544 00000254 T udp_sendto
1074531356 00000186 T udp_sendto_if
1074530888 00000466 T udp_sendto_if_src
00000016 a UEXC_a2
00000016 a UEXC_a2
00000016 a UEXC_a2
00000016 a UEXC_a2
00000016 a UEXC_a2
00000016 a UEXC_a2
00000016 a UEXC_a2
00000020 a UEXC_a3
00000020 a UEXC_a3
00000020 a UEXC_a3
00000020 a UEXC_a3
00000020 a UEXC_a3
00000020 a UEXC_a3
00000020 a UEXC_a3
00000024 a UEXC_a4
00000024 a UEXC_a4
00000024 a UEXC_a4
00000024 a UEXC_a4
00000024 a UEXC_a4
00000024 a UEXC_a4
00000024 a UEXC_a4
00000028 a UEXC_a5
00000028 a UEXC_a5
00000028 a UEXC_a5
00000028 a UEXC_a5
00000028 a UEXC_a5
00000028 a UEXC_a5
00000028 a UEXC_a5
00000032 a UEXC_exccause
00000032 a UEXC_exccause
00000032 a UEXC_exccause
00000032 a UEXC_exccause
00000032 a UEXC_exccause
00000032 a UEXC_exccause
00000032 a UEXC_exccause
00000036 a UEXC_pad
00000036 a UEXC_pad
00000036 a UEXC_pad
00000036 a UEXC_pad
00000036 a UEXC_pad
00000036 a UEXC_pad
00000036 a UEXC_pad
00000000 a UEXC_pc
00000000 a UEXC_pc
00000000 a UEXC_pc
00000000 a UEXC_pc
00000000 a UEXC_pc
00000000 a UEXC_pc
00000000 a UEXC_pc
00000004 a UEXC_ps
00000004 a UEXC_ps
00000004 a UEXC_ps
00000004 a UEXC_ps
00000004 a UEXC_ps
00000004 a UEXC_ps
00000004 a UEXC_ps
00000008 a UEXC_sar
00000008 a UEXC_sar
00000008 a UEXC_sar
00000008 a UEXC_sar
00000008 a UEXC_sar
00000008 a UEXC_sar
00000008 a UEXC_sar
00000012 a UEXC_vpri
00000012 a UEXC_vpri
00000012 a UEXC_vpri
00000012 a UEXC_vpri
00000012 a UEXC_vpri
00000012 a UEXC_vpri
00000012 a UEXC_vpri
1073936896 00000158 T ulTaskGenericNotifyTake
1074439960 00000066 T ultoa
1074966096 00000020 T ungetc
1074924288 00000021 T unlink
1073523444 00000004 b unseen_objects
1073523812 00000180 B Update
00000048 a UserFrameSize
00000048 a UserFrameSize
00000048 a UserFrameSize
00000048 a UserFrameSize
00000048 a UserFrameSize
00000048 a UserFrameSize
00000048 a UserFrameSize
00000096 a UserFrameTotalSize
00000096 a UserFrameTotalSize
00000096 a UserFrameTotalSize
00000096 a UserFrameTotalSize
00000096 a UserFrameTotalSize
00000096 a UserFrameTotalSize
00000096 a UserFrameTotalSize
1074583616 00000041 T usleep
1074925844 00000016 T utoa
1074844868 00000450 t uw_frame_state_for
1074844788 00000080 t uw_init_context_1
1074845348 00000036 t uw_update_context
1074844644 00000144 t uw_update_context_1
1073518516 00000004 b uxCurrentNumberOfTasks
1073518540 00000004 b uxDeletedTasksWaitingCleanUp
1073938548 00000043 T uxListRemove
1073932128 00000044 T uxQueueMessagesWaiting
1073518476 00000004 b uxSchedulerSuspended
1073518488 00000004 b uxTaskNumber
1073936792 00000051 T uxTaskResetEventItemValue
1073518508 00000004 b uxTopReadyPriority
1073504128 00000004 D uxTopUsedPriority
1074984408 00000034 T valid_key_length
1074903308 00000553 t validate_structure
1073949600 00000012 T valloc
1073939088 00000067 T vApplicationGetIdleTaskMemory
1073938840 00000069 W vApplicationStackOverflowHook
1073518380 00000004 b vector_desc_head
1073948876 00000095 t verify_allocated_region
1074979444 00000007 W verifyOta
1074979452 00000007 W verifyRollbackLater
1073938312 00000077 T vEventGroupDelete
1074975732 00000033 T vfiprintf
1074939336 00000033 T vfprintf
1056999136 00000164 d vfs
1056998788 00000164 d vfs
1073515932 00000008 b vfs_console
1074980820 00000005 T vfs_include_syscalls_impl
1074589528 00000093 t vfs_littlefs_close
1074588560 00000050 t vfs_littlefs_close$part$14
1074588884 00000074 t vfs_littlefs_closedir
1074588612 00000113 t vfs_littlefs_fcntl
1074588560 00000050 t vfs_littlefs_fcntl$part$7
1074589332 00000195 t vfs_littlefs_fstat
1074588808 00000075 t vfs_littlefs_fsync
1074588560 00000050 t vfs_littlefs_fsync$part$9
1074588728 00000079 t vfs_littlefs_ftruncate
1074588560 00000050 t vfs_littlefs_ftruncate$part$8
1074589128 00000045 t vfs_littlefs_get_mtime$isra$13
1074587464 00000145 t vfs_littlefs_lseek
1074587052 00000046 t vfs_littlefs_mkdir
1074588080 00000479 t vfs_littlefs_open
1074587316 00000145 t vfs_littlefs_opendir
1074587788 00000174 t vfs_littlefs_pread
1074587612 00000175 t vfs_littlefs_pwrite
1074589832 00000079 t vfs_littlefs_read
1074588560 00000050 t vfs_littlefs_read$part$16
1074589080 00000047 t vfs_littlefs_readdir
1074587100 00000216 t vfs_littlefs_readdir_r
1074590232 00000144 t vfs_littlefs_rename
1074586912 00000139 t vfs_littlefs_rmdir
1074588960 00000119 t vfs_littlefs_seekdir
1074589176 00000154 t vfs_littlefs_stat
1074587964 00000029 t vfs_littlefs_telldir
1074589624 00000128 t vfs_littlefs_truncate
1074590012 00000218 t vfs_littlefs_unlink
1074587996 00000084 t vfs_littlefs_utime
1074589752 00000079 t vfs_littlefs_write
1074588560 00000050 t vfs_littlefs_write$part$15
1073938424 00000024 T vListInitialise
1073938448 00000009 T vListInitialiseItem
1073938496 00000050 T vListInsert
1073938460 00000033 T vListInsertEnd
1073905580 00000042 T vPortEvaluateYieldFromISR
1073938796 00000030 T vPortExitCritical
1073938912 00000026 T vPortSetStackWatchpoint
1073928864 00000011 T vPortSetupTimer
1073928564 T vPortYield
1073928628 T vPortYieldFromInt
1073938828 00000010 T vPortYieldOtherCore
1074939524 00000052 T vprintf
1073932172 00000035 T vQueueDelete
1073927860 00000052 T vRingbufferDelete
1073927704 00000078 T vRingbufferReturnItem
1073927784 00000074 T vRingbufferReturnItemFromISR
1074939712 00000041 T vsnprintf
1073935748 00000056 T vTaskDelay
1073935524 00000224 T vTaskDelete
1073937056 00000238 T vTaskGenericNotifyGiveFromISR
1073937504 00000047 T vTaskGetSnapshot
1073935096 00000025 T vTaskInternalSetTimeOutState
1073935288 00000015 T vTaskMissedYield
1073934512 00000062 T vTaskPlaceOnEventList
1073934576 00000075 T vTaskPlaceOnUnorderedEventList
1073936592 00000199 T vTaskPriorityDisinheritAfterTimeout
1073934916 00000011 T vTaskReleaseEventListLock
1073934928 00000168 T vTaskRemoveFromUnorderedEventList
1073935304 00000046 T vTaskSetThreadLocalStoragePointerAndDelCallback
1073937384 00000120 T vTaskStartScheduler
1073934216 00000293 T vTaskSuspend
1073933456 00000030 T vTaskSuspendAll
1073933980 00000235 T vTaskSwitchContext
1073934900 00000013 T vTaskTakeEventListLock
1073746676 A wcrtomb
1075006892 00000193 T wDev_AppendRxBlocks
1074998064 00000027 T wdev_bank_load
1074998036 00000027 T wdev_bank_store
1074806424 00000031 T wDev_Crypto_Disable
1075002936 00000026 T wdev_csi_len_align
1074804300 00000194 T wdev_csi_rx_process
1074806196 00000008 T wDev_disable_low_rate
1075002964 00000026 T wDev_DiscardFrame
1074806204 00000008 T wDev_enable_low_rate
1074805356 00000036 T wDev_ftm_record_t1t4
1074805396 00000036 T wDev_ftm_record_t2t3
1074805456 00000022 T wdev_ftm_set_callbacks
1074805436 00000018 T wDev_ftm_set_t1t4
1074804240 00000046 T wDev_Get_Next_TBTT
1074998092 00000037 T wDev_GetNoiseFloor
1074805172 00000178 T wDev_IndicateCtrlFrame
1075007092 00000506 T wDev_IndicateFrame
1074806212 00000115 T wDev_Insert_KeyEntry
1074997492 00000046 T wdev_is_data_in_rxlist
1074997140 00000087 T wdev_mac_reg_load
1074997228 00000087 T wdev_mac_reg_store
1074997540 00000100 T wdev_mac_sleep
1074997328 00000017 T wdev_mac_special_reg_load
1074997348 00000017 T wdev_mac_special_reg_store
1074997376 00000116 T wdev_mac_wakeup
1073908356 00000128 T wDev_ProcessFiq
1075007624 00000631 T wDev_ProcessRxSucData
1075006840 00000036 T wDev_record_ftm_data
1074805480 00000138 T wDev_record_ftm_data_local
1074806328 00000052 T wDev_remove_KeyEntry
1074806380 00000042 T wDev_remove_KeyEntry_all_cnx
1074804224 00000012 T wDev_reset_bcnSendTick
1074804208 00000010 T wDev_Reset_TBTT
1074805624 00000086 T wDev_Rxbuf_Deinit
1074805748 00000447 T wDev_Rxbuf_Init
1074804196 00000010 T wDev_Set_Beacon_Int
1074804596 00000074 T wdev_set_promis
1074804536 00000049 T wdev_set_promis_ctrl_pkt
1074804496 00000035 T wdev_set_promis_misc_pkt
1074985784 00000005 T wDev_SetAuthed
1074804172 00000020 T wDev_SetCurChannel
1074804672 00000496 T wDev_SnifferRxData
1075008492 00000108 T wDevCheckBlockError
1073502656 00000056 D wDevCtrl
1073523188 00000112 B wDevMacSleep
1075008272 00000203 T wdevProcessRxSucDataAll
1073944968 00000336 T wdt_hal_config_stage
1073945408 00000047 T wdt_hal_disable
1073945336 00000070 T wdt_hal_enable
1073945532 00000040 T wdt_hal_feed
1073945456 00000074 T wdt_hal_handle_intr
1073944364 00000603 T wdt_hal_init
1073945668 00000029 T wdt_hal_is_enabled
1073945572 00000067 T wdt_hal_set_flashboot_en
1073945304 00000029 T wdt_hal_write_protect_disable
1073945640 00000028 T wdt_hal_write_protect_enable
1073496308 00000008 d wdt0_context
1073537068 00000020 B weixin_timer
1073500596 00000024 D wep
1074985252 00000035 T wep_decap
1074782328 00000086 T wep_encap
1073523528 00000001 B WiFi
1074984936 00000024 T wifi_ant_to_ant_type
1074495648 00000028 t wifi_ap_receive
1074696860 00000010 T wifi_ap_reg_rxcb
1073921204 00000005 t wifi_apb80m_release_wrapper
1073921196 00000005 t wifi_apb80m_request_wrapper
1074680528 00000066 T wifi_api_lock
1074680596 00000033 T wifi_api_unlock
1073894264 00000076 T wifi_bt_common_module_disable
1073894188 00000076 T wifi_bt_common_module_enable
1073523345 00000002 B wifi_cali_offset
1073920760 00000025 T wifi_calloc
1074894836 00000008 t wifi_clock_disable_wrapper
1074894844 00000008 t wifi_clock_enable_wrapper
1074721712 00000059 T wifi_connect_process
1074488472 00000015 t wifi_create_and_start_ap
1074488428 00000041 t wifi_create_and_start_ap$part$1
1074488412 00000015 t wifi_create_and_start_sta
1074488368 00000041 t wifi_create_and_start_sta$part$0
1074895408 00000093 T wifi_create_queue
1074895504 00000017 t wifi_create_queue_wrapper
1074685752 00000168 T wifi_create_softap
1074686024 00000178 T wifi_create_sta
1074720892 00000012 T wifi_crypto_init
1074723904 00000199 T wifi_deauth_sta_process
1074494832 00000024 t wifi_default_action_ap_start
1074494620 00000024 t wifi_default_action_ap_stop
1074494936 00000087 t wifi_default_action_sta_connected
1074494880 00000024 t wifi_default_action_sta_disconnected
1074494904 00000032 t wifi_default_action_sta_got_ip
1074494856 00000024 t wifi_default_action_sta_start
1074494644 00000024 t wifi_default_action_sta_stop
1073516000 00000001 b wifi_default_handlers_set
1074721160 00000030 T wifi_deinit
1074681408 00000038 T wifi_deinit_in_caller_task
1074721360 00000010 T wifi_deinit_process
1074895524 00000034 T wifi_delete_queue
1074895560 00000010 t wifi_delete_queue_wrapper
1074685920 00000096 T wifi_destroy_softap
1074686204 00000102 T wifi_destroy_sta
1074721780 00000084 T wifi_disconnect_process
1074495676 00000036 t wifi_driver_start
1073496616 00000004 D WIFI_EVENT
1074684512 00000033 T wifi_event_post
1074985912 00000005 T wifi_filtbw_set
1074495712 00000012 t wifi_free
1074721980 00000593 T wifi_get_ap_list_process
1074680488 00000010 T wifi_get_init_state
1074719188 00000038 T wifi_get_macaddr
1074722576 00000302 T wifi_get_sta_list_process
1074836428 00000214 T wifi_get_tx_gain
1073908328 00000019 T wifi_gpio_debug
1074720912 00000036 T wifi_hmac_init
1074719388 00000251 T wifi_hw_start
1074719728 00000248 T wifi_hw_stop
1074680632 00000035 T wifi_init_completed
1074681456 00000117 T wifi_init_in_caller_task
1074763364 00000040 T wifi_init_key
1074721196 00000161 T wifi_init_process
1073921024 00000020 t wifi_int_disable_wrapper
1073921008 00000015 t wifi_int_restore_wrapper
1074724200 00000082 T wifi_ipc_process
1074680504 00000011 T wifi_is_stop_in_progress
1074720980 00000178 T wifi_lmac_init
1074687676 00000152 T wifi_log
1073920712 00000020 T wifi_malloc
1074720472 00000359 T wifi_menuconfig_init
1073499728 00000004 D WIFI_MESH_EVENT
1074684556 00000055 T wifi_mesh_event_post
1074724504 00000116 T wifi_mesh_map_deauth_progress
1074724620 00000037 T wifi_mesh_ps_duty_cycle_get_process
1074686324 00000302 T wifi_mode_set
1074455708 00000072 T wifi_module_disable
1074455636 00000072 T wifi_module_enable
1074725796 00001305 T wifi_nvs_cfg_init
1074725312 00000118 T wifi_nvs_cfg_item_init
1074727116 00000056 T wifi_nvs_commit
1074727640 00000362 T wifi_nvs_compare_cfg_diff
1074729228 00000068 T wifi_nvs_deinit
1074727104 00000010 T wifi_nvs_get
1074729108 00000013 T wifi_nvs_get_sta_listen_interval
1074729308 00000105 T wifi_nvs_init
1074729124 00000104 T wifi_nvs_reset_current_ap_info
1074727196 00000342 T wifi_nvs_set
1074728296 00000075 T wifi_nvs_validate_ap_chan
1074728372 00000024 T wifi_nvs_validate_ap_num
1074728100 00000056 T wifi_nvs_validate_ap_password
1074728072 00000026 T wifi_nvs_validate_ap_ssid
1074728216 00000080 T wifi_nvs_validate_country
1074728396 00000022 T wifi_nvs_validate_sta_listen_interval
1074728156 00000060 T wifi_nvs_validate_sta_password
1074681592 00000066 T wifi_osi_funcs_register
1073503556 00000004 D WIFI_PROV_EVENT
1074897528 00000318 T wifi_prov_mgr_deinit
1074895736 00001016 t wifi_prov_mgr_event_handler_internal
1074897016 00000510 t wifi_prov_mgr_stop_service
1073920732 00000025 T wifi_realloc
1074724484 00000020 T wifi_register_mgmt_frame
1074719300 00000069 T wifi_reset_mac
1074894852 00000010 t wifi_reset_mac_wrapper
1075003488 00000112 T wifi_rf_phy_disable
1075003360 00000121 T wifi_rf_phy_enable
1074721872 00000090 T wifi_scan_start_process
1074724460 00000024 T wifi_set_appie_process
1074722888 00000779 T wifi_set_config_process
1074728008 00000061 T wifi_set_default_ssid
1074684496 00000012 T wifi_set_event_handler
1074720080 00000340 T wifi_set_mode_process
1074719984 00000096 T wifi_set_promis_process
1074723668 00000177 T wifi_set_protocol_process
1074723848 00000013 T wifi_set_ps_process
1074762968 00000332 T wifi_set_rx_policy
1074723864 00000036 T wifi_set_rxcb_process
1074837416 00000155 T wifi_set_tx_gain
1074681268 00000134 T wifi_softap_deauth
1074680980 00000280 T wifi_softap_get_config
1074717700 00000034 T wifi_softap_max_support_num
1074717764 00001424 T wifi_softap_set_config
1074701184 00000700 T wifi_softap_start
1074701888 00000298 T wifi_softap_stop
1074762076 00000013 T wifi_sta_get_prof_password
1074495620 00000028 t wifi_sta_receive
1074751360 00000023 T wifi_sta_reg_eapol_txdone_cb
1074754996 00000010 T wifi_sta_reg_rxcb
1073522020 00000004 B wifi_sta_rx_probe_req
1074494668 00000163 t wifi_start
1074721372 00000102 T wifi_start_process
1074984928 00000007 T wifi_station_get_reconnect_policy
1074717052 00000086 T wifi_station_save_ap_channel
1074757988 00000152 T wifi_station_start
1074758144 00000118 T wifi_station_stop
1074721480 00000222 T wifi_stop_process
1074719680 00000040 T wifi_stop_sw_txq
1074894780 00000015 t wifi_thread_semphr_free
1074895304 00000066 t wifi_thread_semphr_get_wrapper
1073911180 00000071 T wifi_track_pll_cap
1074837820 00000016 T wifi_track_tx_power
1074495748 00000020 t wifi_transmit
1074495724 00000021 t wifi_transmit_wrap
1074836376 00000046 T wifi_tx_dig_gain
1074719640 00000036 T wifi_txq_empty
1074724140 00000053 T wifi_wpa2_ent_disable_process
1074724124 00000011 T wifi_wpa2_is_started
1074724108 00000011 T wifi_wps_is_started
1073920788 00000017 t wifi_zalloc_wrapper
1073523720 00000076 B Wire
1073523644 00000076 B Wire1
1074770548 00000013 T wl_clear_ap_no_lr
1074770536 00000011 T wl_is_ap_no_lr
1074565064 00000088 T wlanif_init
1074565172 00000019 T wlanif_init_ap
1074565152 00000019 T wlanif_init_sta
1074564984 00000077 T wlanif_input
1074627824 00000072 T wpa_add_kde
1074982688 00000022 T wpa_ap_get_peer_spp_msg
1074617140 00000042 T wpa_ap_get_wpa_ie
1074626964 00000107 T wpa_ap_join
1074627072 00000020 T wpa_ap_remove
1074617184 00000043 T wpa_ap_rx_eapol
1074617420 00000053 T wpa_attach
1074627508 00000314 T wpa_auth_gen_wpa_ie
1074622072 00000024 t wpa_auth_get_psk$isra$9
1074625936 00000099 T wpa_auth_sta_associated
1074622928 00000050 T wpa_auth_sta_deinit
1074622840 00000085 T wpa_auth_sta_init
1074650524 00000015 T wpa_bin_clear_free
1073525356 00000004 B wpa_cb
1074983032 00000045 T wpa_cipher_key_len
1074983208 00000086 T wpa_cipher_put_suites
1074983080 00000039 T wpa_cipher_to_alg
1074640464 00000098 T wpa_cipher_to_suite
1074638788 00000032 T wpa_cipher_valid_mgmt_group
1074640424 00000037 T wpa_cipher_valid_pairwise
1074639888 00000053 T wpa_compare_rsn_ie
1074617392 00000025 T wpa_config_assoc_ie
1074617552 00000053 T wpa_config_bss
1074982712 00000005 T wpa_config_done
1074650272 00000250 T wpa_config_parse_string
1074617476 00000073 T wpa_config_profile
1073527228 00000108 B wpa_crypto_funcs
1074720840 00000049 T wpa_crypto_funcs_init
1074617228 00000019 T wpa_deattach
1074617120 00000011 T wpa_deauthenticate
1074639756 00000131 T wpa_eapol_key_mic
1074642788 00000146 T wpa_eapol_key_send
1074621152 00000086 t wpa_free_sta_sm
1074649432 00000048 T wpa_gen_rsnxe
1074648604 00000827 T wpa_gen_wpa_ie
1074983372 00000035 t WPA_GET_BE32
1074982996 00000035 t WPA_GET_BE32
1074982788 00000035 t WPA_GET_BE32
1074617068 00000029 T wpa_get_key
1074649876 00000092 T wpa_get_ntp_timestamp
1074621368 00000108 t wpa_gmk_to_gtk
1074621604 00000067 t wpa_group_config_group_keys
1074621240 00000128 t wpa_group_init_gmk_and_counter
1074622468 00000159 t wpa_group_sm_step
1074621476 00000128 t wpa_gtk_update
1074622684 00000156 T wpa_init
1074617032 00000035 T wpa_install_key
1074638768 00000018 T wpa_mic_len
1074647192 00000134 T wpa_michael_mic_failure
1074617132 00000008 T wpa_neg_complete
1074628300 00000265 T wpa_parse_kde_ies
1074648548 00000053 T wpa_parse_wpa_ie
1074638868 00000488 T wpa_parse_wpa_ie_rsn
1074638820 00000045 T wpa_parse_wpa_ie_rsnxe
1074639356 00000398 T wpa_parse_wpa_ie_wpa
1074617248 00000062 T wpa_parse_wpa_ie_wrapper
1074640068 00000354 T wpa_pmk_to_ptk
1074626036 00000863 T wpa_receive
1074622628 00000055 t wpa_rekey_gtk
1074625908 00000025 t wpa_rekey_ptk
1074624796 00000054 T wpa_remove_ptk
1074621868 00000039 t wpa_replay_counter_mark_invalid
1074621824 00000041 t wpa_replay_counter_valid
1074638708 00000058 t wpa_selector_to_bitfield
1074623824 00000174 t wpa_send_eapol
1074625884 00000022 t wpa_send_eapol_timeout
1074617100 00000018 T wpa_sendto_wrapper
1074647888 00000483 T wpa_set_bss
1074647016 00000130 T wpa_set_passphrase
1074646932 00000082 T wpa_set_pmk
1074646848 00000081 T wpa_set_profile
1074651396 00000089 T wpa_sm_alloc_eapol
1074651516 00000027 T wpa_sm_deauthenticate
1074648456 00000047 T wpa_sm_deinit
1074983576 00000005 T wpa_sm_disassociate
1074648372 00000082 T wpa_sm_drop_sa
1074641656 00000078 t wpa_sm_ether_send
1074651488 00000014 T wpa_sm_free_eapol
1074646632 00000095 T wpa_sm_init
1074642936 00000295 t wpa_sm_key_request
1074983568 00000007 T wpa_sm_mlme_setprotection
1074646728 00000118 T wpa_sm_notify_assoc
1074648504 00000042 T wpa_sm_notify_disassoc
1074641864 00000092 t wpa_sm_pmksa_free_cb
1074643232 00000014 t wpa_sm_rekey_ptk
1074644396 00002235 T wpa_sm_rx_eapol
1074647728 00000078 T wpa_sm_set_ap_rsnxe
1074647808 00000078 T wpa_sm_set_assoc_rsnxe
1074641536 00000120 t wpa_sm_set_key
1074643728 00000044 T wpa_sm_set_pmk_from_pmksa
1074641956 00000082 t wpa_sm_set_seq$constprop$21
1074643616 00000029 T wpa_sm_set_state
1074624940 00000942 t wpa_sm_step
1074647696 00000031 T wpa_sta_clear_curr_pmksa
1074617608 00000048 T wpa_sta_connect
1074617380 00000010 t wpa_sta_connected_cb
1074647660 00000035 T wpa_sta_cur_pmksa_matches_akm
1074617312 00000067 t wpa_sta_disconnected_cb
1074647620 00000038 T wpa_sta_in_4way_handshake
1074641804 00000058 t wpa_supplicant_check_group_cipher$isra$4
1074641736 00000019 T wpa_supplicant_clr_countermeasures
1074983352 00000020 T wpa_supplicant_gtk_tx_bit_workaround
1074642040 00000386 t wpa_supplicant_install_gtk$constprop$24
1074642560 00000139 t wpa_supplicant_install_ptk$constprop$27
1074643648 00000046 T wpa_supplicant_key_neg_complete
1074643512 00000102 T wpa_supplicant_pairwise_gtk
1074649480 00000317 T wpa_supplicant_parse_ies
1074643772 00000624 T wpa_supplicant_process_1_of_4
1074643248 00000261 T wpa_supplicant_send_2_of_4
1074643696 00000032 T wpa_supplicant_stop_countermeasures
1074651504 00000011 T wpa_supplicant_transition_disable
1074627896 00000402 T wpa_validate_wpa_ie
1074621672 00000150 t wpa_verify_key_mic
1074627092 00000414 T wpa_write_rsn_ie
1074650936 00000038 t wpa2_api_lock
1074650916 00000018 t wpa2_api_unlock
1074650976 00000018 T wpa2_get_eap_state
1074650996 00000139 T wpa2_post
1074617824 00000344 t wpa3_build_sae_msg
1074618232 00000227 t wpa3_parse_sae_msg
1074650592 00000028 T wpabuf_alloc
1074650620 00000038 T wpabuf_alloc_copy
1074650660 00000028 T wpabuf_free
1074983520 00000015 T wpabuf_put
1074632908 00000019 t wpabuf_put_buf
1074632884 00000022 t wpabuf_put_data$part$14
1074628608 00000024 t wpabuf_put_le16
1074628632 00000018 t wpabuf_put_u8
1073520828 00000020 b wr_cfg$8691
1073520784 00000044 b wr_data$8692
1074825112 00000486 T wr_rx_gain_mem
1074820060 00000154 T write_freq_mem_all
1073916356 00000156 T write_txrate_power_offset
1074821624 00000162 T write_wifi_chan_data
1073522541 00000001 B wrong_password_flag
1073910652 00000052 T wrtie_pll_cap
1073918208 00000145 t ws2812_rmt_adapter
1057047044 00000032 d x25519_bad_point_1
1057047012 00000032 d x25519_bad_point_2
1073518612 00000020 b xDelayedTaskList1
1073518592 00000020 b xDelayedTaskList2
1073938092 00000073 T xEventGroupClearBits
1073937800 00000026 T xEventGroupCreate
1073938168 00000142 T xEventGroupSetBits
1073937828 00000262 T xEventGroupWaitBits
1073517516 00000004 b xid$7831
1073518480 00000004 b xIdleTaskHandle
1073518484 00000004 b xNextTaskUnblockTime
1073518492 00000004 b xNumOfOverflows
1074983608 00000041 t xor_aes_block
1073518500 00000004 b xPendedTicks
1073518564 00000020 b xPendingReadyList
1073507900 00000004 D xphyQueue
1073939076 00000012 T xPortcheckValidStackMem
1073939004 00000069 T xPortCheckValidTCBMem
1073938768 00000028 T xPortEnterCriticalTimeout
1073938740 00000028 T xPortInIsrContext
1073905560 00000019 T xPortInterruptedFromISRContext
1073938592 00000026 T xPortStartScheduler
1073928876 00000019 T xPortSysTickHandler
1073929848 00000061 T xQueueCreateCountingSemaphore
1073930400 00000036 T xQueueCreateMutex
1073930304 00000040 T xQueueCreateMutexStatic
1073929692 00000114 T xQueueGenericCreate
1073929528 00000163 T xQueueGenericCreateStatic
1073929400 00000127 T xQueueGenericReset
1073929912 00000392 T xQueueGenericSend
1073930436 00000226 T xQueueGenericSendFromISR
1073929808 00000037 T xQueueGetMutexHolder
1073930664 00000212 T xQueueGiveFromISR
1073930344 00000056 T xQueueGiveMutexRecursive
1073931636 00000312 T xQueuePeek
1073930876 00000316 T xQueueReceive
1073931948 00000180 T xQueueReceiveFromISR
1073931192 00000380 T xQueueSemaphoreTake
1073931572 00000064 T xQueueTakeMutexRecursive
1073927068 00000147 T xRingbufferCreate
1073927912 00000025 T xRingbufferGetMaxItemSize
1073927588 00000058 T xRingbufferReceive
1073927648 00000054 T xRingbufferReceiveFromISR
1073927216 00000211 T xRingbufferSend
1073927428 00000159 T xRingbufferSendFromISR
1073518504 00000004 b xSchedulerRunning
1073518520 00000020 b xSuspendedTaskList
1074794696 00000026 T xswap
1073518472 00000004 b xSwitchingContext
1073906364 W xt_debugexception
1073899584 T xt_highint4
1073906396 W xt_highint5
1074581988 00000032 T xt_int_has_handler
1073954448 00000027 T xt_ints_off
1073954424 00000024 T xt_ints_on
1073906404 W xt_nmi
1074582020 00000059 T xt_set_interrupt_handler
00000016 a XT_SOL_A0
00000016 a XT_SOL_A0
00000016 a XT_SOL_A0
00000016 a XT_SOL_A0
00000016 a XT_SOL_A0
00000016 a XT_SOL_A0
00000016 a XT_SOL_A0
00000020 a XT_SOL_A1
00000020 a XT_SOL_A1
00000020 a XT_SOL_A1
00000020 a XT_SOL_A1
00000020 a XT_SOL_A1
00000020 a XT_SOL_A1
00000020 a XT_SOL_A1
00000024 a XT_SOL_A2
00000024 a XT_SOL_A2
00000024 a XT_SOL_A2
00000024 a XT_SOL_A2
00000024 a XT_SOL_A2
00000024 a XT_SOL_A2
00000024 a XT_SOL_A2
00000028 a XT_SOL_A3
00000028 a XT_SOL_A3
00000028 a XT_SOL_A3
00000028 a XT_SOL_A3
00000028 a XT_SOL_A3
00000028 a XT_SOL_A3
00000028 a XT_SOL_A3
00000000 a XT_SOL_EXIT
00000000 a XT_SOL_EXIT
00000000 a XT_SOL_EXIT
00000000 a XT_SOL_EXIT
00000000 a XT_SOL_EXIT
00000000 a XT_SOL_EXIT
00000000 a XT_SOL_EXIT
00000004 a XT_SOL_PC
00000004 a XT_SOL_PC
00000004 a XT_SOL_PC
00000004 a XT_SOL_PC
00000004 a XT_SOL_PC
00000004 a XT_SOL_PC
00000004 a XT_SOL_PC
00000008 a XT_SOL_PS
00000008 a XT_SOL_PS
00000008 a XT_SOL_PS
00000008 a XT_SOL_PS
00000008 a XT_SOL_PS
00000008 a XT_SOL_PS
00000008 a XT_SOL_PS
00000012 a XT_SOL_THREADPTR
00000012 a XT_SOL_THREADPTR
00000012 a XT_SOL_THREADPTR
00000012 a XT_SOL_THREADPTR
00000012 a XT_SOL_THREADPTR
00000012 a XT_SOL_THREADPTR
00000012 a XT_SOL_THREADPTR
00000012 a XT_STK_A0
00000012 a XT_STK_A0
00000012 a XT_STK_A0
00000012 a XT_STK_A0
00000012 a XT_STK_A0
00000012 a XT_STK_A0
00000012 a XT_STK_A0
00000016 a XT_STK_A1
00000016 a XT_STK_A1
00000016 a XT_STK_A1
00000016 a XT_STK_A1
00000016 a XT_STK_A1
00000016 a XT_STK_A1
00000016 a XT_STK_A1
00000052 a XT_STK_A10
00000052 a XT_STK_A10
00000052 a XT_STK_A10
00000052 a XT_STK_A10
00000052 a XT_STK_A10
00000052 a XT_STK_A10
00000052 a XT_STK_A10
00000056 a XT_STK_A11
00000056 a XT_STK_A11
00000056 a XT_STK_A11
00000056 a XT_STK_A11
00000056 a XT_STK_A11
00000056 a XT_STK_A11
00000056 a XT_STK_A11
00000060 a XT_STK_A12
00000060 a XT_STK_A12
00000060 a XT_STK_A12
00000060 a XT_STK_A12
00000060 a XT_STK_A12
00000060 a XT_STK_A12
00000060 a XT_STK_A12
00000064 a XT_STK_A13
00000064 a XT_STK_A13
00000064 a XT_STK_A13
00000064 a XT_STK_A13
00000064 a XT_STK_A13
00000064 a XT_STK_A13
00000064 a XT_STK_A13
00000068 a XT_STK_A14
00000068 a XT_STK_A14
00000068 a XT_STK_A14
00000068 a XT_STK_A14
00000068 a XT_STK_A14
00000068 a XT_STK_A14
00000068 a XT_STK_A14
00000072 a XT_STK_A15
00000072 a XT_STK_A15
00000072 a XT_STK_A15
00000072 a XT_STK_A15
00000072 a XT_STK_A15
00000072 a XT_STK_A15
00000072 a XT_STK_A15
00000020 a XT_STK_A2
00000020 a XT_STK_A2
00000020 a XT_STK_A2
00000020 a XT_STK_A2
00000020 a XT_STK_A2
00000020 a XT_STK_A2
00000020 a XT_STK_A2
00000024 a XT_STK_A3
00000024 a XT_STK_A3
00000024 a XT_STK_A3
00000024 a XT_STK_A3
00000024 a XT_STK_A3
00000024 a XT_STK_A3
00000024 a XT_STK_A3
00000028 a XT_STK_A4
00000028 a XT_STK_A4
00000028 a XT_STK_A4
00000028 a XT_STK_A4
00000028 a XT_STK_A4
00000028 a XT_STK_A4
00000028 a XT_STK_A4
00000032 a XT_STK_A5
00000032 a XT_STK_A5
00000032 a XT_STK_A5
00000032 a XT_STK_A5
00000032 a XT_STK_A5
00000032 a XT_STK_A5
00000032 a XT_STK_A5
00000036 a XT_STK_A6
00000036 a XT_STK_A6
00000036 a XT_STK_A6
00000036 a XT_STK_A6
00000036 a XT_STK_A6
00000036 a XT_STK_A6
00000036 a XT_STK_A6
00000040 a XT_STK_A7
00000040 a XT_STK_A7
00000040 a XT_STK_A7
00000040 a XT_STK_A7
00000040 a XT_STK_A7
00000040 a XT_STK_A7
00000040 a XT_STK_A7
00000044 a XT_STK_A8
00000044 a XT_STK_A8
00000044 a XT_STK_A8
00000044 a XT_STK_A8
00000044 a XT_STK_A8
00000044 a XT_STK_A8
00000044 a XT_STK_A8
00000048 a XT_STK_A9
00000048 a XT_STK_A9
00000048 a XT_STK_A9
00000048 a XT_STK_A9
00000048 a XT_STK_A9
00000048 a XT_STK_A9
00000048 a XT_STK_A9
00000080 a XT_STK_EXCCAUSE
00000080 a XT_STK_EXCCAUSE
00000080 a XT_STK_EXCCAUSE
00000080 a XT_STK_EXCCAUSE
00000080 a XT_STK_EXCCAUSE
00000080 a XT_STK_EXCCAUSE
00000080 a XT_STK_EXCCAUSE
00000084 a XT_STK_EXCVADDR
00000084 a XT_STK_EXCVADDR
00000084 a XT_STK_EXCVADDR
00000084 a XT_STK_EXCVADDR
00000084 a XT_STK_EXCVADDR
00000084 a XT_STK_EXCVADDR
00000084 a XT_STK_EXCVADDR
00000000 a XT_STK_EXIT
00000000 a XT_STK_EXIT
00000000 a XT_STK_EXIT
00000000 a XT_STK_EXIT
00000000 a XT_STK_EXIT
00000000 a XT_STK_EXIT
00000000 a XT_STK_EXIT
00000004 a XT_STK_PC
00000004 a XT_STK_PC
00000004 a XT_STK_PC
00000004 a XT_STK_PC
00000004 a XT_STK_PC
00000004 a XT_STK_PC
00000004 a XT_STK_PC
00000008 a XT_STK_PS
00000008 a XT_STK_PS
00000008 a XT_STK_PS
00000008 a XT_STK_PS
00000008 a XT_STK_PS
00000008 a XT_STK_PS
00000008 a XT_STK_PS
00000076 a XT_STK_SAR
00000076 a XT_STK_SAR
00000076 a XT_STK_SAR
00000076 a XT_STK_SAR
00000076 a XT_STK_SAR
00000076 a XT_STK_SAR
00000076 a XT_STK_SAR
00000088 a XT_STK_TMP0
00000088 a XT_STK_TMP0
00000088 a XT_STK_TMP0
00000088 a XT_STK_TMP0
00000088 a XT_STK_TMP0
00000088 a XT_STK_TMP0
00000088 a XT_STK_TMP0
00000092 a XT_STK_TMP1
00000092 a XT_STK_TMP1
00000092 a XT_STK_TMP1
00000092 a XT_STK_TMP1
00000092 a XT_STK_TMP1
00000092 a XT_STK_TMP1
00000092 a XT_STK_TMP1
00000096 a XT_STK_TMP2
00000096 a XT_STK_TMP2
00000096 a XT_STK_TMP2
00000096 a XT_STK_TMP2
00000096 a XT_STK_TMP2
00000096 a XT_STK_TMP2
00000096 a XT_STK_TMP2
1073900800 00000018 T xt_unhandled_exception
1073904744 00000018 T xt_unhandled_interrupt
1073935124 00000161 T xTaskCheckForTimeOut
1073933368 00000086 T xTaskCreatePinnedToCore
1073933180 00000187 T xTaskCreateStaticPinnedToCore
1074437116 00000030 T xTaskCreateUniversal
1073935388 00000018 T xTaskGetAffinity
1073935408 00000022 T xTaskGetCurrentTaskHandle
1073935452 00000026 T xTaskGetCurrentTaskHandleForCPU
1073933568 00000042 T xTaskGetIdleTaskHandleForCPU
1073935480 00000044 T xTaskGetSchedulerState
1073933488 00000013 T xTaskGetTickCount
1073933504 00000022 T xTaskGetTickCountFromISR
1073933612 00000367 T xTaskIncrementTick
1073936380 00000211 T xTaskPriorityDisinherit
1073936168 00000210 T xTaskPriorityInherit
1073499352 00000008 d xTaskQueueMutex
1073934652 00000246 T xTaskRemoveFromEventList
1073935804 00000362 T xTaskResumeAll
1073518544 00000020 b xTasksWaitingTermination
00000100 a XtExcFrameSize
00000100 a XtExcFrameSize
00000100 a XtExcFrameSize
00000100 a XtExcFrameSize
00000100 a XtExcFrameSize
00000100 a XtExcFrameSize
00000100 a XtExcFrameSize
1057054864 00000032 D Xthal_intlevel
1073954408 00000007 T xthal_restore_extra_nw
1073954416 00000007 T xthal_save_extra_nw
1073954400 00000008 T xthal_set_intclear
1073954088 T xthal_spill_registers_into_stack_nw
1073954364 00000035 T xthal_window_spill
1073954088 00000273 T xthal_window_spill_nw
1073518512 00000004 b xTickCount
1073938416 00000007 W xTimerCreateTimerTask
00000032 a XtSolFrameSize
00000032 a XtSolFrameSize
00000032 a XtSolFrameSize
00000032 a XtSolFrameSize
00000032 a XtSolFrameSize
00000032 a XtSolFrameSize
00000032 a XtSolFrameSize
1073518496 00000004 b xYieldPending
1074437064 00000011 W yield
1073920828 00000020 t zalloc_internal_wrapper
1057069388 00000016 d zeroes$5009
1057070596 00000016 d zeroes$5013
1057066388 00000016 d zeroes$5030
1057067764 00000016 d zeroes$5045
